
build/os.out:     file format elf32-i386


Disassembly of section .text:

00100000 <_ZN5IoBus9writeByteEth-0x10>:
  100000:	02 b0 ad 1b 03 00    	add    dh,BYTE PTR [eax+0x31bad]
  100006:	00 00                	add    BYTE PTR [eax],al
  100008:	fb                   	sti    
  100009:	4f                   	dec    edi
  10000a:	52                   	push   edx
  10000b:	e4 66                	in     al,0x66
  10000d:	90                   	nop
  10000e:	66 90                	xchg   ax,ax

00100010 <_ZN5IoBus9writeByteEth>:
  100010:	55                   	push   ebp
  100011:	89 e5                	mov    ebp,esp
  100013:	8b 55 08             	mov    edx,DWORD PTR [ebp+0x8]
  100016:	8b 45 0c             	mov    eax,DWORD PTR [ebp+0xc]
  100019:	ee                   	out    dx,al
  10001a:	5d                   	pop    ebp
  10001b:	c3                   	ret    
  10001c:	8d 74 26 00          	lea    esi,[esi+eiz*1+0x0]

00100020 <_ZN5IoBus8readByteEt>:
  100020:	55                   	push   ebp
  100021:	89 e5                	mov    ebp,esp
  100023:	8b 55 08             	mov    edx,DWORD PTR [ebp+0x8]
  100026:	ec                   	in     al,dx
  100027:	5d                   	pop    ebp
  100028:	c3                   	ret    
  100029:	66 90                	xchg   ax,ax
  10002b:	66 90                	xchg   ax,ax
  10002d:	66 90                	xchg   ax,ax
  10002f:	90                   	nop

00100030 <_Z16writeIntToBufferIiEPcN12_GLOBAL__N_122WriteIntToBufferConfigIT_EE>:
  100030:	55                   	push   ebp
  100031:	89 e5                	mov    ebp,esp
  100033:	57                   	push   edi
  100034:	56                   	push   esi
  100035:	53                   	push   ebx
  100036:	83 ec 3c             	sub    esp,0x3c
  100039:	8b 4d 08             	mov    ecx,DWORD PTR [ebp+0x8]
  10003c:	8b 75 0c             	mov    esi,DWORD PTR [ebp+0xc]
  10003f:	85 c9                	test   ecx,ecx
  100041:	0f 84 09 01 00 00    	je     100150 <_Z16writeIntToBufferIiEPcN12_GLOBAL__N_122WriteIntToBufferConfigIT_EE+0x120>
  100047:	8b 45 10             	mov    eax,DWORD PTR [ebp+0x10]
  10004a:	89 ca                	mov    edx,ecx
  10004c:	c7 45 d2 30 31 32 33 	mov    DWORD PTR [ebp-0x2e],0x33323130
  100053:	8d 7d d2             	lea    edi,[ebp-0x2e]
  100056:	c7 45 d6 34 35 36 37 	mov    DWORD PTR [ebp-0x2a],0x37363534
  10005d:	83 f8 0a             	cmp    eax,0xa
  100060:	89 45 c0             	mov    DWORD PTR [ebp-0x40],eax
  100063:	89 c8                	mov    eax,ecx
  100065:	0f 94 c3             	sete   bl
  100068:	c1 e8 1f             	shr    eax,0x1f
  10006b:	f7 da                	neg    edx
  10006d:	c7 45 da 38 39 41 42 	mov    DWORD PTR [ebp-0x26],0x42413938
  100074:	20 c3                	and    bl,al
  100076:	c7 45 de 43 44 45 46 	mov    DWORD PTR [ebp-0x22],0x46454443
  10007d:	0f 45 ca             	cmovne ecx,edx
  100080:	80 7d 14 00          	cmp    BYTE PTR [ebp+0x14],0x0
  100084:	88 5d bf             	mov    BYTE PTR [ebp-0x41],bl
  100087:	c6 45 e2 00          	mov    BYTE PTR [ebp-0x1e],0x0
  10008b:	c7 45 e3 30 31 32 33 	mov    DWORD PTR [ebp-0x1d],0x33323130
  100092:	c7 45 e7 34 35 36 37 	mov    DWORD PTR [ebp-0x19],0x37363534
  100099:	c7 45 eb 38 39 61 62 	mov    DWORD PTR [ebp-0x15],0x62613938
  1000a0:	c7 45 ef 63 64 65 66 	mov    DWORD PTR [ebp-0x11],0x66656463
  1000a7:	c6 45 f3 00          	mov    BYTE PTR [ebp-0xd],0x0
  1000ab:	0f 84 8f 00 00 00    	je     100140 <_Z16writeIntToBufferIiEPcN12_GLOBAL__N_122WriteIntToBufferConfigIT_EE+0x110>
  1000b1:	89 75 b8             	mov    DWORD PTR [ebp-0x48],esi
  1000b4:	89 f3                	mov    ebx,esi
  1000b6:	8b 75 c0             	mov    esi,DWORD PTR [ebp-0x40]
  1000b9:	8d b4 26 00 00 00 00 	lea    esi,[esi+eiz*1+0x0]
  1000c0:	89 c8                	mov    eax,ecx
  1000c2:	31 d2                	xor    edx,edx
  1000c4:	89 5d c0             	mov    DWORD PTR [ebp-0x40],ebx
  1000c7:	83 c3 01             	add    ebx,0x1
  1000ca:	f7 f6                	div    esi
  1000cc:	0f b6 14 17          	movzx  edx,BYTE PTR [edi+edx*1]
  1000d0:	88 53 ff             	mov    BYTE PTR [ebx-0x1],dl
  1000d3:	89 ca                	mov    edx,ecx
  1000d5:	89 c1                	mov    ecx,eax
  1000d7:	39 d6                	cmp    esi,edx
  1000d9:	76 e5                	jbe    1000c0 <_Z16writeIntToBufferIiEPcN12_GLOBAL__N_122WriteIntToBufferConfigIT_EE+0x90>
  1000db:	80 7d bf 00          	cmp    BYTE PTR [ebp-0x41],0x0
  1000df:	8b 75 b8             	mov    esi,DWORD PTR [ebp-0x48]
  1000e2:	75 4c                	jne    100130 <_Z16writeIntToBufferIiEPcN12_GLOBAL__N_122WriteIntToBufferConfigIT_EE+0x100>
  1000e4:	89 d9                	mov    ecx,ebx
  1000e6:	8d 53 ff             	lea    edx,[ebx-0x1]
  1000e9:	31 c0                	xor    eax,eax
  1000eb:	29 f1                	sub    ecx,esi
  1000ed:	89 cf                	mov    edi,ecx
  1000ef:	c1 ef 1f             	shr    edi,0x1f
  1000f2:	01 cf                	add    edi,ecx
  1000f4:	d1 ff                	sar    edi,1
  1000f6:	83 f9 01             	cmp    ecx,0x1
  1000f9:	7e 1f                	jle    10011a <_Z16writeIntToBufferIiEPcN12_GLOBAL__N_122WriteIntToBufferConfigIT_EE+0xea>
  1000fb:	89 5d c0             	mov    DWORD PTR [ebp-0x40],ebx
  1000fe:	66 90                	xchg   ax,ax
  100100:	0f b6 0a             	movzx  ecx,BYTE PTR [edx]
  100103:	0f b6 1c 06          	movzx  ebx,BYTE PTR [esi+eax*1]
  100107:	83 ea 01             	sub    edx,0x1
  10010a:	88 5a 01             	mov    BYTE PTR [edx+0x1],bl
  10010d:	88 0c 06             	mov    BYTE PTR [esi+eax*1],cl
  100110:	83 c0 01             	add    eax,0x1
  100113:	39 c7                	cmp    edi,eax
  100115:	7f e9                	jg     100100 <_Z16writeIntToBufferIiEPcN12_GLOBAL__N_122WriteIntToBufferConfigIT_EE+0xd0>
  100117:	8b 5d c0             	mov    ebx,DWORD PTR [ebp-0x40]
  10011a:	c6 03 00             	mov    BYTE PTR [ebx],0x0
  10011d:	83 c4 3c             	add    esp,0x3c
  100120:	89 f0                	mov    eax,esi
  100122:	5b                   	pop    ebx
  100123:	5e                   	pop    esi
  100124:	5f                   	pop    edi
  100125:	5d                   	pop    ebp
  100126:	c3                   	ret    
  100127:	8d b4 26 00 00 00 00 	lea    esi,[esi+eiz*1+0x0]
  10012e:	66 90                	xchg   ax,ax
  100130:	c6 03 2d             	mov    BYTE PTR [ebx],0x2d
  100133:	8b 5d c0             	mov    ebx,DWORD PTR [ebp-0x40]
  100136:	83 c3 02             	add    ebx,0x2
  100139:	eb a9                	jmp    1000e4 <_Z16writeIntToBufferIiEPcN12_GLOBAL__N_122WriteIntToBufferConfigIT_EE+0xb4>
  10013b:	8d 74 26 00          	lea    esi,[esi+eiz*1+0x0]
  10013f:	90                   	nop
  100140:	8d 7d e3             	lea    edi,[ebp-0x1d]
  100143:	e9 69 ff ff ff       	jmp    1000b1 <_Z16writeIntToBufferIiEPcN12_GLOBAL__N_122WriteIntToBufferConfigIT_EE+0x81>
  100148:	8d b4 26 00 00 00 00 	lea    esi,[esi+eiz*1+0x0]
  10014f:	90                   	nop
  100150:	b8 30 00 00 00       	mov    eax,0x30
  100155:	66 89 06             	mov    WORD PTR [esi],ax
  100158:	83 c4 3c             	add    esp,0x3c
  10015b:	89 f0                	mov    eax,esi
  10015d:	5b                   	pop    ebx
  10015e:	5e                   	pop    esi
  10015f:	5f                   	pop    edi
  100160:	5d                   	pop    ebp
  100161:	c3                   	ret    
  100162:	8d b4 26 00 00 00 00 	lea    esi,[esi+eiz*1+0x0]
  100169:	8d b4 26 00 00 00 00 	lea    esi,[esi+eiz*1+0x0]

00100170 <_Z8kputcharc>:
  100170:	55                   	push   ebp
  100171:	89 e5                	mov    ebp,esp
  100173:	0f be 45 08          	movsx  eax,BYTE PTR [ebp+0x8]
  100177:	89 45 08             	mov    DWORD PTR [ebp+0x8],eax
  10017a:	5d                   	pop    ebp
  10017b:	e9 f0 07 00 00       	jmp    100970 <_ZN6Serial5writeEc>

00100180 <_Z7kprintfPKcz>:
  100180:	55                   	push   ebp
  100181:	89 e5                	mov    ebp,esp
  100183:	57                   	push   edi
  100184:	56                   	push   esi
  100185:	53                   	push   ebx
  100186:	81 ec 8c 00 00 00    	sub    esp,0x8c
  10018c:	8b 5d 08             	mov    ebx,DWORD PTR [ebp+0x8]
  10018f:	0f be 03             	movsx  eax,BYTE PTR [ebx]
  100192:	84 c0                	test   al,al
  100194:	0f 84 8b 00 00 00    	je     100225 <_Z7kprintfPKcz+0xa5>
  10019a:	8d 75 0c             	lea    esi,[ebp+0xc]
  10019d:	8d 76 00             	lea    esi,[esi+0x0]
  1001a0:	8d 7b 01             	lea    edi,[ebx+0x1]
  1001a3:	3c 25                	cmp    al,0x25
  1001a5:	0f 85 c5 00 00 00    	jne    100270 <_Z7kprintfPKcz+0xf0>
  1001ab:	0f be 43 01          	movsx  eax,BYTE PTR [ebx+0x1]
  1001af:	3c 64                	cmp    al,0x64
  1001b1:	0f 84 d9 00 00 00    	je     100290 <_Z7kprintfPKcz+0x110>
  1001b7:	7f 77                	jg     100230 <_Z7kprintfPKcz+0xb0>
  1001b9:	3c 25                	cmp    al,0x25
  1001bb:	0f 84 3f 01 00 00    	je     100300 <_Z7kprintfPKcz+0x180>
  1001c1:	3c 48                	cmp    al,0x48
  1001c3:	0f 85 b7 00 00 00    	jne    100280 <_Z7kprintfPKcz+0x100>
  1001c9:	89 f0                	mov    eax,esi
  1001cb:	8d 55 a7             	lea    edx,[ebp-0x59]
  1001ce:	c6 45 a0 01          	mov    BYTE PTR [ebp-0x60],0x1
  1001d2:	83 c6 04             	add    esi,0x4
  1001d5:	8b 00                	mov    eax,DWORD PTR [eax]
  1001d7:	ff 75 a0             	push   DWORD PTR [ebp-0x60]
  1001da:	8d 7d a7             	lea    edi,[ebp-0x59]
  1001dd:	6a 10                	push   0x10
  1001df:	52                   	push   edx
  1001e0:	50                   	push   eax
  1001e1:	89 45 94             	mov    DWORD PTR [ebp-0x6c],eax
  1001e4:	89 55 98             	mov    DWORD PTR [ebp-0x68],edx
  1001e7:	c7 45 9c 10 00 00 00 	mov    DWORD PTR [ebp-0x64],0x10
  1001ee:	e8 3d fe ff ff       	call   100030 <_Z16writeIntToBufferIiEPcN12_GLOBAL__N_122WriteIntToBufferConfigIT_EE>
  1001f3:	0f be 45 a7          	movsx  eax,BYTE PTR [ebp-0x59]
  1001f7:	83 c4 10             	add    esp,0x10
  1001fa:	84 c0                	test   al,al
  1001fc:	74 18                	je     100216 <_Z7kprintfPKcz+0x96>
  1001fe:	66 90                	xchg   ax,ax
  100200:	83 ec 0c             	sub    esp,0xc
  100203:	83 c7 01             	add    edi,0x1
  100206:	50                   	push   eax
  100207:	e8 64 07 00 00       	call   100970 <_ZN6Serial5writeEc>
  10020c:	0f be 07             	movsx  eax,BYTE PTR [edi]
  10020f:	83 c4 10             	add    esp,0x10
  100212:	84 c0                	test   al,al
  100214:	75 ea                	jne    100200 <_Z7kprintfPKcz+0x80>
  100216:	0f be 43 02          	movsx  eax,BYTE PTR [ebx+0x2]
  10021a:	83 c3 02             	add    ebx,0x2
  10021d:	84 c0                	test   al,al
  10021f:	0f 85 7b ff ff ff    	jne    1001a0 <_Z7kprintfPKcz+0x20>
  100225:	8d 65 f4             	lea    esp,[ebp-0xc]
  100228:	5b                   	pop    ebx
  100229:	5e                   	pop    esi
  10022a:	5f                   	pop    edi
  10022b:	5d                   	pop    ebp
  10022c:	c3                   	ret    
  10022d:	8d 76 00             	lea    esi,[esi+0x0]
  100230:	3c 68                	cmp    al,0x68
  100232:	0f 84 e8 00 00 00    	je     100320 <_Z7kprintfPKcz+0x1a0>
  100238:	3c 73                	cmp    al,0x73
  10023a:	0f 85 3b 01 00 00    	jne    10037b <_Z7kprintfPKcz+0x1fb>
  100240:	89 f0                	mov    eax,esi
  100242:	83 c6 04             	add    esi,0x4
  100245:	8b 38                	mov    edi,DWORD PTR [eax]
  100247:	0f be 07             	movsx  eax,BYTE PTR [edi]
  10024a:	84 c0                	test   al,al
  10024c:	74 c8                	je     100216 <_Z7kprintfPKcz+0x96>
  10024e:	66 90                	xchg   ax,ax
  100250:	83 ec 0c             	sub    esp,0xc
  100253:	83 c7 01             	add    edi,0x1
  100256:	50                   	push   eax
  100257:	e8 14 07 00 00       	call   100970 <_ZN6Serial5writeEc>
  10025c:	0f be 07             	movsx  eax,BYTE PTR [edi]
  10025f:	83 c4 10             	add    esp,0x10
  100262:	84 c0                	test   al,al
  100264:	75 ea                	jne    100250 <_Z7kprintfPKcz+0xd0>
  100266:	eb ae                	jmp    100216 <_Z7kprintfPKcz+0x96>
  100268:	8d b4 26 00 00 00 00 	lea    esi,[esi+eiz*1+0x0]
  10026f:	90                   	nop
  100270:	83 ec 0c             	sub    esp,0xc
  100273:	50                   	push   eax
  100274:	e8 f7 06 00 00       	call   100970 <_ZN6Serial5writeEc>
  100279:	0f be 43 01          	movsx  eax,BYTE PTR [ebx+0x1]
  10027d:	83 c4 10             	add    esp,0x10
  100280:	89 fb                	mov    ebx,edi
  100282:	eb 99                	jmp    10021d <_Z7kprintfPKcz+0x9d>
  100284:	8d b4 26 00 00 00 00 	lea    esi,[esi+eiz*1+0x0]
  10028b:	8d 74 26 00          	lea    esi,[esi+eiz*1+0x0]
  10028f:	90                   	nop
  100290:	89 f0                	mov    eax,esi
  100292:	8d 55 a7             	lea    edx,[ebp-0x59]
  100295:	c6 45 80 00          	mov    BYTE PTR [ebp-0x80],0x0
  100299:	83 c6 04             	add    esi,0x4
  10029c:	8b 00                	mov    eax,DWORD PTR [eax]
  10029e:	ff 75 80             	push   DWORD PTR [ebp-0x80]
  1002a1:	8d 7d a7             	lea    edi,[ebp-0x59]
  1002a4:	6a 0a                	push   0xa
  1002a6:	52                   	push   edx
  1002a7:	50                   	push   eax
  1002a8:	89 85 74 ff ff ff    	mov    DWORD PTR [ebp-0x8c],eax
  1002ae:	89 95 78 ff ff ff    	mov    DWORD PTR [ebp-0x88],edx
  1002b4:	c7 85 7c ff ff ff 0a 	mov    DWORD PTR [ebp-0x84],0xa
  1002bb:	00 00 00 
  1002be:	e8 6d fd ff ff       	call   100030 <_Z16writeIntToBufferIiEPcN12_GLOBAL__N_122WriteIntToBufferConfigIT_EE>
  1002c3:	0f be 45 a7          	movsx  eax,BYTE PTR [ebp-0x59]
  1002c7:	83 c4 10             	add    esp,0x10
  1002ca:	84 c0                	test   al,al
  1002cc:	0f 84 44 ff ff ff    	je     100216 <_Z7kprintfPKcz+0x96>
  1002d2:	8d b4 26 00 00 00 00 	lea    esi,[esi+eiz*1+0x0]
  1002d9:	8d b4 26 00 00 00 00 	lea    esi,[esi+eiz*1+0x0]
  1002e0:	83 ec 0c             	sub    esp,0xc
  1002e3:	83 c7 01             	add    edi,0x1
  1002e6:	50                   	push   eax
  1002e7:	e8 84 06 00 00       	call   100970 <_ZN6Serial5writeEc>
  1002ec:	0f be 07             	movsx  eax,BYTE PTR [edi]
  1002ef:	83 c4 10             	add    esp,0x10
  1002f2:	84 c0                	test   al,al
  1002f4:	75 ea                	jne    1002e0 <_Z7kprintfPKcz+0x160>
  1002f6:	e9 1b ff ff ff       	jmp    100216 <_Z7kprintfPKcz+0x96>
  1002fb:	8d 74 26 00          	lea    esi,[esi+eiz*1+0x0]
  1002ff:	90                   	nop
  100300:	83 ec 0c             	sub    esp,0xc
  100303:	83 c3 02             	add    ebx,0x2
  100306:	6a 25                	push   0x25
  100308:	e8 63 06 00 00       	call   100970 <_ZN6Serial5writeEc>
  10030d:	0f be 03             	movsx  eax,BYTE PTR [ebx]
  100310:	83 c4 10             	add    esp,0x10
  100313:	e9 05 ff ff ff       	jmp    10021d <_Z7kprintfPKcz+0x9d>
  100318:	8d b4 26 00 00 00 00 	lea    esi,[esi+eiz*1+0x0]
  10031f:	90                   	nop
  100320:	89 f0                	mov    eax,esi
  100322:	8d 55 a7             	lea    edx,[ebp-0x59]
  100325:	c6 45 90 00          	mov    BYTE PTR [ebp-0x70],0x0
  100329:	83 c6 04             	add    esi,0x4
  10032c:	8b 00                	mov    eax,DWORD PTR [eax]
  10032e:	ff 75 90             	push   DWORD PTR [ebp-0x70]
  100331:	8d 7d a7             	lea    edi,[ebp-0x59]
  100334:	6a 10                	push   0x10
  100336:	52                   	push   edx
  100337:	50                   	push   eax
  100338:	89 45 84             	mov    DWORD PTR [ebp-0x7c],eax
  10033b:	89 55 88             	mov    DWORD PTR [ebp-0x78],edx
  10033e:	c7 45 8c 10 00 00 00 	mov    DWORD PTR [ebp-0x74],0x10
  100345:	e8 e6 fc ff ff       	call   100030 <_Z16writeIntToBufferIiEPcN12_GLOBAL__N_122WriteIntToBufferConfigIT_EE>
  10034a:	0f be 45 a7          	movsx  eax,BYTE PTR [ebp-0x59]
  10034e:	83 c4 10             	add    esp,0x10
  100351:	84 c0                	test   al,al
  100353:	0f 84 bd fe ff ff    	je     100216 <_Z7kprintfPKcz+0x96>
  100359:	8d b4 26 00 00 00 00 	lea    esi,[esi+eiz*1+0x0]
  100360:	83 ec 0c             	sub    esp,0xc
  100363:	83 c7 01             	add    edi,0x1
  100366:	50                   	push   eax
  100367:	e8 04 06 00 00       	call   100970 <_ZN6Serial5writeEc>
  10036c:	0f be 07             	movsx  eax,BYTE PTR [edi]
  10036f:	83 c4 10             	add    esp,0x10
  100372:	84 c0                	test   al,al
  100374:	75 ea                	jne    100360 <_Z7kprintfPKcz+0x1e0>
  100376:	e9 9b fe ff ff       	jmp    100216 <_Z7kprintfPKcz+0x96>
  10037b:	89 fb                	mov    ebx,edi
  10037d:	e9 1e fe ff ff       	jmp    1001a0 <_Z7kprintfPKcz+0x20>
  100382:	66 90                	xchg   ax,ax
  100384:	66 90                	xchg   ax,ax
  100386:	66 90                	xchg   ax,ax
  100388:	66 90                	xchg   ax,ax
  10038a:	66 90                	xchg   ax,ax
  10038c:	66 90                	xchg   ax,ax
  10038e:	66 90                	xchg   ax,ax

00100390 <_Z12gdt_set_gateimmhh>:
  100390:	55                   	push   ebp
  100391:	89 e5                	mov    ebp,esp
  100393:	53                   	push   ebx
  100394:	8b 55 08             	mov    edx,DWORD PTR [ebp+0x8]
  100397:	8b 4d 0c             	mov    ecx,DWORD PTR [ebp+0xc]
  10039a:	8b 45 10             	mov    eax,DWORD PTR [ebp+0x10]
  10039d:	66 89 0c d5 2a 38 10 	mov    WORD PTR [edx*8+0x10382a],cx
  1003a4:	00 
  1003a5:	89 cb                	mov    ebx,ecx
  1003a7:	c1 e9 18             	shr    ecx,0x18
  1003aa:	88 0c d5 2f 38 10 00 	mov    BYTE PTR [edx*8+0x10382f],cl
  1003b1:	0f b6 4d 18          	movzx  ecx,BYTE PTR [ebp+0x18]
  1003b5:	c1 eb 10             	shr    ebx,0x10
  1003b8:	66 89 04 d5 28 38 10 	mov    WORD PTR [edx*8+0x103828],ax
  1003bf:	00 
  1003c0:	c1 e8 10             	shr    eax,0x10
  1003c3:	83 e0 0f             	and    eax,0xf
  1003c6:	83 e1 f0             	and    ecx,0xfffffff0
  1003c9:	88 1c d5 2c 38 10 00 	mov    BYTE PTR [edx*8+0x10382c],bl
  1003d0:	8b 5d fc             	mov    ebx,DWORD PTR [ebp-0x4]
  1003d3:	09 c8                	or     eax,ecx
  1003d5:	88 04 d5 2e 38 10 00 	mov    BYTE PTR [edx*8+0x10382e],al
  1003dc:	8b 45 14             	mov    eax,DWORD PTR [ebp+0x14]
  1003df:	88 04 d5 2d 38 10 00 	mov    BYTE PTR [edx*8+0x10382d],al
  1003e6:	c9                   	leave  
  1003e7:	c3                   	ret    
  1003e8:	8d b4 26 00 00 00 00 	lea    esi,[esi+eiz*1+0x0]
  1003ef:	90                   	nop

001003f0 <_Z11gdt_installv>:
  1003f0:	c7 05 22 38 10 00 28 	mov    DWORD PTR ds:0x103822,0x103828
  1003f7:	38 10 00 
  1003fa:	b8 17 00 00 00       	mov    eax,0x17
  1003ff:	66 a3 20 38 10 00    	mov    ds:0x103820,ax
  100405:	c7 05 28 38 10 00 00 	mov    DWORD PTR ds:0x103828,0x0
  10040c:	00 00 00 
  10040f:	c7 05 2c 38 10 00 00 	mov    DWORD PTR ds:0x10382c,0x0
  100416:	00 00 00 
  100419:	c7 05 30 38 10 00 ff 	mov    DWORD PTR ds:0x103830,0xffff
  100420:	ff 00 00 
  100423:	c7 05 34 38 10 00 00 	mov    DWORD PTR ds:0x103834,0xcf9a00
  10042a:	9a cf 00 
  10042d:	c7 05 38 38 10 00 ff 	mov    DWORD PTR ds:0x103838,0xffff
  100434:	ff 00 00 
  100437:	c7 05 3c 38 10 00 00 	mov    DWORD PTR ds:0x10383c,0xcf9200
  10043e:	92 cf 00 
  100441:	e9 63 0c 00 00       	jmp    1010a9 <gdt_flush>
  100446:	8d b4 26 00 00 00 00 	lea    esi,[esi+eiz*1+0x0]
  10044d:	8d 76 00             	lea    esi,[esi+0x0]

00100450 <_Z12idt_set_gatehmth>:
  100450:	55                   	push   ebp
  100451:	89 e5                	mov    ebp,esp
  100453:	0f b6 45 08          	movzx  eax,BYTE PTR [ebp+0x8]
  100457:	8b 55 0c             	mov    edx,DWORD PTR [ebp+0xc]
  10045a:	66 89 14 c5 20 30 10 	mov    WORD PTR [eax*8+0x103020],dx
  100461:	00 
  100462:	c1 ea 10             	shr    edx,0x10
  100465:	66 89 14 c5 26 30 10 	mov    WORD PTR [eax*8+0x103026],dx
  10046c:	00 
  10046d:	8b 55 10             	mov    edx,DWORD PTR [ebp+0x10]
  100470:	c6 04 c5 24 30 10 00 	mov    BYTE PTR [eax*8+0x103024],0x0
  100477:	00 
  100478:	66 89 14 c5 22 30 10 	mov    WORD PTR [eax*8+0x103022],dx
  10047f:	00 
  100480:	8b 55 14             	mov    edx,DWORD PTR [ebp+0x14]
  100483:	5d                   	pop    ebp
  100484:	88 14 c5 25 30 10 00 	mov    BYTE PTR [eax*8+0x103025],dl
  10048b:	c3                   	ret    
  10048c:	8d 74 26 00          	lea    esi,[esi+eiz*1+0x0]

00100490 <_Z11idt_installv>:
  100490:	b8 ff 07 00 00       	mov    eax,0x7ff
  100495:	c6 05 20 30 10 00 00 	mov    BYTE PTR ds:0x103020,0x0
  10049c:	66 a3 00 30 10 00    	mov    ds:0x103000,ax
  1004a2:	c7 05 02 30 10 00 20 	mov    DWORD PTR ds:0x103002,0x103020
  1004a9:	30 10 00 
  1004ac:	e9 15 0c 00 00       	jmp    1010c6 <idt_load>
  1004b1:	8d b4 26 00 00 00 00 	lea    esi,[esi+eiz*1+0x0]
  1004b8:	8d b4 26 00 00 00 00 	lea    esi,[esi+eiz*1+0x0]
  1004bf:	90                   	nop

001004c0 <_Z12isrs_installv>:
  1004c0:	b8 cf 10 10 00       	mov    eax,0x1010cf
  1004c5:	ba 08 00 00 00       	mov    edx,0x8
  1004ca:	c7 05 22 30 10 00 08 	mov    DWORD PTR ds:0x103022,0x8e000008
  1004d1:	00 00 8e 
  1004d4:	b9 00 8e ff ff       	mov    ecx,0xffff8e00
  1004d9:	66 a3 20 30 10 00    	mov    ds:0x103020,ax
  1004df:	c1 e8 10             	shr    eax,0x10
  1004e2:	66 a3 26 30 10 00    	mov    ds:0x103026,ax
  1004e8:	b8 d9 10 10 00       	mov    eax,0x1010d9
  1004ed:	66 a3 28 30 10 00    	mov    ds:0x103028,ax
  1004f3:	c1 e8 10             	shr    eax,0x10
  1004f6:	66 a3 2e 30 10 00    	mov    ds:0x10302e,ax
  1004fc:	b8 e3 10 10 00       	mov    eax,0x1010e3
  100501:	66 a3 30 30 10 00    	mov    ds:0x103030,ax
  100507:	c1 e8 10             	shr    eax,0x10
  10050a:	66 a3 36 30 10 00    	mov    ds:0x103036,ax
  100510:	b8 ed 10 10 00       	mov    eax,0x1010ed
  100515:	66 a3 38 30 10 00    	mov    ds:0x103038,ax
  10051b:	c1 e8 10             	shr    eax,0x10
  10051e:	66 a3 3e 30 10 00    	mov    ds:0x10303e,ax
  100524:	b8 f7 10 10 00       	mov    eax,0x1010f7
  100529:	66 a3 40 30 10 00    	mov    ds:0x103040,ax
  10052f:	c1 e8 10             	shr    eax,0x10
  100532:	66 a3 46 30 10 00    	mov    ds:0x103046,ax
  100538:	b8 01 11 10 00       	mov    eax,0x101101
  10053d:	66 a3 48 30 10 00    	mov    ds:0x103048,ax
  100543:	c1 e8 10             	shr    eax,0x10
  100546:	66 a3 4e 30 10 00    	mov    ds:0x10304e,ax
  10054c:	b8 15 11 10 00       	mov    eax,0x101115
  100551:	66 a3 58 30 10 00    	mov    ds:0x103058,ax
  100557:	c1 e8 10             	shr    eax,0x10
  10055a:	66 a3 5e 30 10 00    	mov    ds:0x10305e,ax
  100560:	b8 1f 11 10 00       	mov    eax,0x10111f
  100565:	66 a3 60 30 10 00    	mov    ds:0x103060,ax
  10056b:	c1 e8 10             	shr    eax,0x10
  10056e:	66 a3 66 30 10 00    	mov    ds:0x103066,ax
  100574:	b8 27 11 10 00       	mov    eax,0x101127
  100579:	66 a3 68 30 10 00    	mov    ds:0x103068,ax
  10057f:	c1 e8 10             	shr    eax,0x10
  100582:	66 a3 6e 30 10 00    	mov    ds:0x10306e,ax
  100588:	b8 31 11 10 00       	mov    eax,0x101131
  10058d:	66 a3 70 30 10 00    	mov    ds:0x103070,ax
  100593:	c1 e8 10             	shr    eax,0x10
  100596:	66 a3 76 30 10 00    	mov    ds:0x103076,ax
  10059c:	b8 39 11 10 00       	mov    eax,0x101139
  1005a1:	66 a3 78 30 10 00    	mov    ds:0x103078,ax
  1005a7:	c1 e8 10             	shr    eax,0x10
  1005aa:	66 a3 7e 30 10 00    	mov    ds:0x10307e,ax
  1005b0:	b8 41 11 10 00       	mov    eax,0x101141
  1005b5:	c7 05 2a 30 10 00 08 	mov    DWORD PTR ds:0x10302a,0x8e000008
  1005bc:	00 00 8e 
  1005bf:	c7 05 32 30 10 00 08 	mov    DWORD PTR ds:0x103032,0x8e000008
  1005c6:	00 00 8e 
  1005c9:	c7 05 3a 30 10 00 08 	mov    DWORD PTR ds:0x10303a,0x8e000008
  1005d0:	00 00 8e 
  1005d3:	c7 05 42 30 10 00 08 	mov    DWORD PTR ds:0x103042,0x8e000008
  1005da:	00 00 8e 
  1005dd:	c7 05 4a 30 10 00 08 	mov    DWORD PTR ds:0x10304a,0x8e000008
  1005e4:	00 00 8e 
  1005e7:	c7 05 5a 30 10 00 08 	mov    DWORD PTR ds:0x10305a,0x8e000008
  1005ee:	00 00 8e 
  1005f1:	c7 05 62 30 10 00 08 	mov    DWORD PTR ds:0x103062,0x8e000008
  1005f8:	00 00 8e 
  1005fb:	c7 05 6a 30 10 00 08 	mov    DWORD PTR ds:0x10306a,0x8e000008
  100602:	00 00 8e 
  100605:	c7 05 72 30 10 00 08 	mov    DWORD PTR ds:0x103072,0x8e000008
  10060c:	00 00 8e 
  10060f:	c7 05 7a 30 10 00 08 	mov    DWORD PTR ds:0x10307a,0x8e000008
  100616:	00 00 8e 
  100619:	66 a3 80 30 10 00    	mov    ds:0x103080,ax
  10061f:	c1 e8 10             	shr    eax,0x10
  100622:	66 a3 86 30 10 00    	mov    ds:0x103086,ax
  100628:	b8 49 11 10 00       	mov    eax,0x101149
  10062d:	66 a3 88 30 10 00    	mov    ds:0x103088,ax
  100633:	c1 e8 10             	shr    eax,0x10
  100636:	66 a3 8e 30 10 00    	mov    ds:0x10308e,ax
  10063c:	b8 08 00 00 00       	mov    eax,0x8
  100641:	66 a3 8a 30 10 00    	mov    ds:0x10308a,ax
  100647:	b8 4e 11 10 00       	mov    eax,0x10114e
  10064c:	66 a3 90 30 10 00    	mov    ds:0x103090,ax
  100652:	c1 e8 10             	shr    eax,0x10
  100655:	66 a3 96 30 10 00    	mov    ds:0x103096,ax
  10065b:	b8 53 11 10 00       	mov    eax,0x101153
  100660:	66 a3 98 30 10 00    	mov    ds:0x103098,ax
  100666:	c1 e8 10             	shr    eax,0x10
  100669:	66 a3 9e 30 10 00    	mov    ds:0x10309e,ax
  10066f:	b8 5a 11 10 00       	mov    eax,0x10115a
  100674:	66 a3 a0 30 10 00    	mov    ds:0x1030a0,ax
  10067a:	c1 e8 10             	shr    eax,0x10
  10067d:	66 a3 a6 30 10 00    	mov    ds:0x1030a6,ax
  100683:	b8 61 11 10 00       	mov    eax,0x101161
  100688:	66 a3 a8 30 10 00    	mov    ds:0x1030a8,ax
  10068e:	c1 e8 10             	shr    eax,0x10
  100691:	66 a3 ae 30 10 00    	mov    ds:0x1030ae,ax
  100697:	b8 68 11 10 00       	mov    eax,0x101168
  10069c:	66 a3 b0 30 10 00    	mov    ds:0x1030b0,ax
  1006a2:	c1 e8 10             	shr    eax,0x10
  1006a5:	66 a3 b6 30 10 00    	mov    ds:0x1030b6,ax
  1006ab:	b8 6f 11 10 00       	mov    eax,0x10116f
  1006b0:	66 a3 b8 30 10 00    	mov    ds:0x1030b8,ax
  1006b6:	c1 e8 10             	shr    eax,0x10
  1006b9:	66 a3 be 30 10 00    	mov    ds:0x1030be,ax
  1006bf:	b8 76 11 10 00       	mov    eax,0x101176
  1006c4:	66 a3 c0 30 10 00    	mov    ds:0x1030c0,ax
  1006ca:	c1 e8 10             	shr    eax,0x10
  1006cd:	66 a3 c6 30 10 00    	mov    ds:0x1030c6,ax
  1006d3:	b8 7d 11 10 00       	mov    eax,0x10117d
  1006d8:	66 a3 c8 30 10 00    	mov    ds:0x1030c8,ax
  1006de:	c1 e8 10             	shr    eax,0x10
  1006e1:	66 a3 ce 30 10 00    	mov    ds:0x1030ce,ax
  1006e7:	b8 84 11 10 00       	mov    eax,0x101184
  1006ec:	c7 05 82 30 10 00 08 	mov    DWORD PTR ds:0x103082,0x8e000008
  1006f3:	00 00 8e 
  1006f6:	c6 05 8c 30 10 00 00 	mov    BYTE PTR ds:0x10308c,0x0
  1006fd:	c6 05 8d 30 10 00 8e 	mov    BYTE PTR ds:0x10308d,0x8e
  100704:	c7 05 92 30 10 00 08 	mov    DWORD PTR ds:0x103092,0x8e000008
  10070b:	00 00 8e 
  10070e:	c7 05 9a 30 10 00 08 	mov    DWORD PTR ds:0x10309a,0x8e000008
  100715:	00 00 8e 
  100718:	c7 05 a2 30 10 00 08 	mov    DWORD PTR ds:0x1030a2,0x8e000008
  10071f:	00 00 8e 
  100722:	c7 05 aa 30 10 00 08 	mov    DWORD PTR ds:0x1030aa,0x8e000008
  100729:	00 00 8e 
  10072c:	c7 05 b2 30 10 00 08 	mov    DWORD PTR ds:0x1030b2,0x8e000008
  100733:	00 00 8e 
  100736:	c7 05 ba 30 10 00 08 	mov    DWORD PTR ds:0x1030ba,0x8e000008
  10073d:	00 00 8e 
  100740:	c7 05 c2 30 10 00 08 	mov    DWORD PTR ds:0x1030c2,0x8e000008
  100747:	00 00 8e 
  10074a:	c7 05 ca 30 10 00 08 	mov    DWORD PTR ds:0x1030ca,0x8e000008
  100751:	00 00 8e 
  100754:	66 a3 d0 30 10 00    	mov    ds:0x1030d0,ax
  10075a:	c1 e8 10             	shr    eax,0x10
  10075d:	66 a3 d6 30 10 00    	mov    ds:0x1030d6,ax
  100763:	b8 8b 11 10 00       	mov    eax,0x10118b
  100768:	66 a3 d8 30 10 00    	mov    ds:0x1030d8,ax
  10076e:	c1 e8 10             	shr    eax,0x10
  100771:	66 a3 de 30 10 00    	mov    ds:0x1030de,ax
  100777:	b8 92 11 10 00       	mov    eax,0x101192
  10077c:	66 a3 e0 30 10 00    	mov    ds:0x1030e0,ax
  100782:	c1 e8 10             	shr    eax,0x10
  100785:	66 a3 e6 30 10 00    	mov    ds:0x1030e6,ax
  10078b:	b8 99 11 10 00       	mov    eax,0x101199
  100790:	66 a3 e8 30 10 00    	mov    ds:0x1030e8,ax
  100796:	c1 e8 10             	shr    eax,0x10
  100799:	66 a3 ee 30 10 00    	mov    ds:0x1030ee,ax
  10079f:	b8 a0 11 10 00       	mov    eax,0x1011a0
  1007a4:	66 a3 f0 30 10 00    	mov    ds:0x1030f0,ax
  1007aa:	c1 e8 10             	shr    eax,0x10
  1007ad:	66 a3 f6 30 10 00    	mov    ds:0x1030f6,ax
  1007b3:	b8 a7 11 10 00       	mov    eax,0x1011a7
  1007b8:	66 a3 f8 30 10 00    	mov    ds:0x1030f8,ax
  1007be:	c1 e8 10             	shr    eax,0x10
  1007c1:	66 a3 fe 30 10 00    	mov    ds:0x1030fe,ax
  1007c7:	b8 ae 11 10 00       	mov    eax,0x1011ae
  1007cc:	66 a3 00 31 10 00    	mov    ds:0x103100,ax
  1007d2:	c1 e8 10             	shr    eax,0x10
  1007d5:	66 a3 06 31 10 00    	mov    ds:0x103106,ax
  1007db:	b8 b5 11 10 00       	mov    eax,0x1011b5
  1007e0:	66 a3 08 31 10 00    	mov    ds:0x103108,ax
  1007e6:	c1 e8 10             	shr    eax,0x10
  1007e9:	66 a3 0e 31 10 00    	mov    ds:0x10310e,ax
  1007ef:	b8 bc 11 10 00       	mov    eax,0x1011bc
  1007f4:	66 a3 10 31 10 00    	mov    ds:0x103110,ax
  1007fa:	c1 e8 10             	shr    eax,0x10
  1007fd:	66 a3 16 31 10 00    	mov    ds:0x103116,ax
  100803:	b8 c3 11 10 00       	mov    eax,0x1011c3
  100808:	66 a3 18 31 10 00    	mov    ds:0x103118,ax
  10080e:	c1 e8 10             	shr    eax,0x10
  100811:	c7 05 d2 30 10 00 08 	mov    DWORD PTR ds:0x1030d2,0x8e000008
  100818:	00 00 8e 
  10081b:	c7 05 da 30 10 00 08 	mov    DWORD PTR ds:0x1030da,0x8e000008
  100822:	00 00 8e 
  100825:	c7 05 e2 30 10 00 08 	mov    DWORD PTR ds:0x1030e2,0x8e000008
  10082c:	00 00 8e 
  10082f:	c7 05 ea 30 10 00 08 	mov    DWORD PTR ds:0x1030ea,0x8e000008
  100836:	00 00 8e 
  100839:	66 89 15 f2 30 10 00 	mov    WORD PTR ds:0x1030f2,dx
  100840:	66 89 0d f4 30 10 00 	mov    WORD PTR ds:0x1030f4,cx
  100847:	c7 05 fa 30 10 00 08 	mov    DWORD PTR ds:0x1030fa,0x8e000008
  10084e:	00 00 8e 
  100851:	c7 05 02 31 10 00 08 	mov    DWORD PTR ds:0x103102,0x8e000008
  100858:	00 00 8e 
  10085b:	c7 05 0a 31 10 00 08 	mov    DWORD PTR ds:0x10310a,0x8e000008
  100862:	00 00 8e 
  100865:	c7 05 12 31 10 00 08 	mov    DWORD PTR ds:0x103112,0x8e000008
  10086c:	00 00 8e 
  10086f:	66 a3 1e 31 10 00    	mov    ds:0x10311e,ax
  100875:	c7 05 1a 31 10 00 08 	mov    DWORD PTR ds:0x10311a,0x8e000008
  10087c:	00 00 8e 
  10087f:	c3                   	ret    

00100880 <fault_handler>:
  100880:	55                   	push   ebp
  100881:	89 e5                	mov    ebp,esp
  100883:	53                   	push   ebx
  100884:	83 ec 08             	sub    esp,0x8
  100887:	8b 5d 08             	mov    ebx,DWORD PTR [ebp+0x8]
  10088a:	ff 73 34             	push   DWORD PTR [ebx+0x34]
  10088d:	ff 73 30             	push   DWORD PTR [ebx+0x30]
  100890:	68 04 20 10 00       	push   0x102004
  100895:	e8 e6 f8 ff ff       	call   100180 <_Z7kprintfPKcz>
  10089a:	58                   	pop    eax
  10089b:	5a                   	pop    edx
  10089c:	ff 73 38             	push   DWORD PTR [ebx+0x38]
  10089f:	68 15 20 10 00       	push   0x102015
  1008a4:	e8 d7 f8 ff ff       	call   100180 <_Z7kprintfPKcz>
  1008a9:	83 c4 10             	add    esp,0x10
  1008ac:	eb fe                	jmp    1008ac <fault_handler+0x2c>
  1008ae:	66 90                	xchg   ax,ax

001008b0 <_ZN6Serial4initEv>:
  1008b0:	55                   	push   ebp
  1008b1:	89 e5                	mov    ebp,esp
  1008b3:	83 ec 10             	sub    esp,0x10
  1008b6:	6a 00                	push   0x0
  1008b8:	68 f9 03 00 00       	push   0x3f9
  1008bd:	e8 4e f7 ff ff       	call   100010 <_ZN5IoBus9writeByteEth>
  1008c2:	58                   	pop    eax
  1008c3:	5a                   	pop    edx
  1008c4:	68 80 00 00 00       	push   0x80
  1008c9:	68 fb 03 00 00       	push   0x3fb
  1008ce:	e8 3d f7 ff ff       	call   100010 <_ZN5IoBus9writeByteEth>
  1008d3:	59                   	pop    ecx
  1008d4:	58                   	pop    eax
  1008d5:	6a 03                	push   0x3
  1008d7:	68 f8 03 00 00       	push   0x3f8
  1008dc:	e8 2f f7 ff ff       	call   100010 <_ZN5IoBus9writeByteEth>
  1008e1:	58                   	pop    eax
  1008e2:	5a                   	pop    edx
  1008e3:	6a 00                	push   0x0
  1008e5:	68 f9 03 00 00       	push   0x3f9
  1008ea:	e8 21 f7 ff ff       	call   100010 <_ZN5IoBus9writeByteEth>
  1008ef:	59                   	pop    ecx
  1008f0:	58                   	pop    eax
  1008f1:	6a 03                	push   0x3
  1008f3:	68 fb 03 00 00       	push   0x3fb
  1008f8:	e8 13 f7 ff ff       	call   100010 <_ZN5IoBus9writeByteEth>
  1008fd:	58                   	pop    eax
  1008fe:	5a                   	pop    edx
  1008ff:	68 c7 00 00 00       	push   0xc7
  100904:	68 fa 03 00 00       	push   0x3fa
  100909:	e8 02 f7 ff ff       	call   100010 <_ZN5IoBus9writeByteEth>
  10090e:	59                   	pop    ecx
  10090f:	58                   	pop    eax
  100910:	6a 0b                	push   0xb
  100912:	68 fc 03 00 00       	push   0x3fc
  100917:	e8 f4 f6 ff ff       	call   100010 <_ZN5IoBus9writeByteEth>
  10091c:	58                   	pop    eax
  10091d:	5a                   	pop    edx
  10091e:	6a 1e                	push   0x1e
  100920:	68 fc 03 00 00       	push   0x3fc
  100925:	e8 e6 f6 ff ff       	call   100010 <_ZN5IoBus9writeByteEth>
  10092a:	59                   	pop    ecx
  10092b:	58                   	pop    eax
  10092c:	68 ae 00 00 00       	push   0xae
  100931:	68 f8 03 00 00       	push   0x3f8
  100936:	e8 d5 f6 ff ff       	call   100010 <_ZN5IoBus9writeByteEth>
  10093b:	c7 04 24 f8 03 00 00 	mov    DWORD PTR [esp],0x3f8
  100942:	e8 d9 f6 ff ff       	call   100020 <_ZN5IoBus8readByteEt>
  100947:	58                   	pop    eax
  100948:	5a                   	pop    edx
  100949:	6a 0f                	push   0xf
  10094b:	68 fc 03 00 00       	push   0x3fc
  100950:	e8 bb f6 ff ff       	call   100010 <_ZN5IoBus9writeByteEth>
  100955:	83 c4 10             	add    esp,0x10
  100958:	c9                   	leave  
  100959:	c3                   	ret    
  10095a:	8d b6 00 00 00 00    	lea    esi,[esi+0x0]

00100960 <_ZN6Serial18setBaudRateDivisorEt>:
  100960:	c3                   	ret    
  100961:	8d b4 26 00 00 00 00 	lea    esi,[esi+eiz*1+0x0]
  100968:	8d b4 26 00 00 00 00 	lea    esi,[esi+eiz*1+0x0]
  10096f:	90                   	nop

00100970 <_ZN6Serial5writeEc>:
  100970:	55                   	push   ebp
  100971:	89 e5                	mov    ebp,esp
  100973:	53                   	push   ebx
  100974:	83 ec 04             	sub    esp,0x4
  100977:	8b 5d 08             	mov    ebx,DWORD PTR [ebp+0x8]
  10097a:	8d b6 00 00 00 00    	lea    esi,[esi+0x0]
  100980:	83 ec 0c             	sub    esp,0xc
  100983:	68 fd 03 00 00       	push   0x3fd
  100988:	e8 93 f6 ff ff       	call   100020 <_ZN5IoBus8readByteEt>
  10098d:	83 c4 10             	add    esp,0x10
  100990:	a8 20                	test   al,0x20
  100992:	74 ec                	je     100980 <_ZN6Serial5writeEc+0x10>
  100994:	83 ec 08             	sub    esp,0x8
  100997:	0f b6 db             	movzx  ebx,bl
  10099a:	53                   	push   ebx
  10099b:	68 f8 03 00 00       	push   0x3f8
  1009a0:	e8 6b f6 ff ff       	call   100010 <_ZN5IoBus9writeByteEth>
  1009a5:	8b 5d fc             	mov    ebx,DWORD PTR [ebp-0x4]
  1009a8:	83 c4 10             	add    esp,0x10
  1009ab:	c9                   	leave  
  1009ac:	c3                   	ret    
  1009ad:	8d 76 00             	lea    esi,[esi+0x0]

001009b0 <_ZN6Serial15isTransmitEmptyEv>:
  1009b0:	55                   	push   ebp
  1009b1:	89 e5                	mov    ebp,esp
  1009b3:	83 ec 14             	sub    esp,0x14
  1009b6:	68 fd 03 00 00       	push   0x3fd
  1009bb:	e8 60 f6 ff ff       	call   100020 <_ZN5IoBus8readByteEt>
  1009c0:	c9                   	leave  
  1009c1:	c0 e8 05             	shr    al,0x5
  1009c4:	83 e0 01             	and    eax,0x1
  1009c7:	c3                   	ret    
  1009c8:	8d b4 26 00 00 00 00 	lea    esi,[esi+eiz*1+0x0]
  1009cf:	90                   	nop

001009d0 <_ZN6Serial4readEv>:
  1009d0:	55                   	push   ebp
  1009d1:	89 e5                	mov    ebp,esp
  1009d3:	83 ec 08             	sub    esp,0x8
  1009d6:	8d b4 26 00 00 00 00 	lea    esi,[esi+eiz*1+0x0]
  1009dd:	8d 76 00             	lea    esi,[esi+0x0]
  1009e0:	83 ec 0c             	sub    esp,0xc
  1009e3:	68 fd 03 00 00       	push   0x3fd
  1009e8:	e8 33 f6 ff ff       	call   100020 <_ZN5IoBus8readByteEt>
  1009ed:	83 c4 10             	add    esp,0x10
  1009f0:	a8 01                	test   al,0x1
  1009f2:	74 ec                	je     1009e0 <_ZN6Serial4readEv+0x10>
  1009f4:	83 ec 0c             	sub    esp,0xc
  1009f7:	68 f8 03 00 00       	push   0x3f8
  1009fc:	e8 1f f6 ff ff       	call   100020 <_ZN5IoBus8readByteEt>
  100a01:	c9                   	leave  
  100a02:	c3                   	ret    
  100a03:	8d b4 26 00 00 00 00 	lea    esi,[esi+eiz*1+0x0]
  100a0a:	8d b6 00 00 00 00    	lea    esi,[esi+0x0]

00100a10 <_ZN6Serial15isDataAvailableEv>:
  100a10:	55                   	push   ebp
  100a11:	89 e5                	mov    ebp,esp
  100a13:	83 ec 14             	sub    esp,0x14
  100a16:	68 fd 03 00 00       	push   0x3fd
  100a1b:	e8 00 f6 ff ff       	call   100020 <_ZN5IoBus8readByteEt>
  100a20:	c9                   	leave  
  100a21:	83 e0 01             	and    eax,0x1
  100a24:	c3                   	ret    
  100a25:	66 90                	xchg   ax,ax
  100a27:	66 90                	xchg   ax,ax
  100a29:	66 90                	xchg   ax,ax
  100a2b:	66 90                	xchg   ax,ax
  100a2d:	66 90                	xchg   ax,ax
  100a2f:	90                   	nop

00100a30 <_ZN11VgaTerminalC1Ev>:
  100a30:	55                   	push   ebp
  100a31:	ba 20 0f 00 00       	mov    edx,0xf20
  100a36:	89 e5                	mov    ebp,esp
  100a38:	8b 45 08             	mov    eax,DWORD PTR [ebp+0x8]
  100a3b:	c7 00 00 00 00 00    	mov    DWORD PTR [eax],0x0
  100a41:	c7 40 04 00 00 00 00 	mov    DWORD PTR [eax+0x4],0x0
  100a48:	66 89 50 08          	mov    WORD PTR [eax+0x8],dx
  100a4c:	ba a0 80 0b 00       	mov    edx,0xb80a0
  100a51:	8d b4 26 00 00 00 00 	lea    esi,[esi+eiz*1+0x0]
  100a58:	8d b4 26 00 00 00 00 	lea    esi,[esi+eiz*1+0x0]
  100a5f:	90                   	nop
  100a60:	8d 82 60 ff ff ff    	lea    eax,[edx-0xa0]
  100a66:	b9 20 0f 00 00       	mov    ecx,0xf20
  100a6b:	83 c0 02             	add    eax,0x2
  100a6e:	66 89 48 fe          	mov    WORD PTR [eax-0x2],cx
  100a72:	39 d0                	cmp    eax,edx
  100a74:	75 f0                	jne    100a66 <_ZN11VgaTerminalC1Ev+0x36>
  100a76:	8d 90 a0 00 00 00    	lea    edx,[eax+0xa0]
  100a7c:	3d a0 8f 0b 00       	cmp    eax,0xb8fa0
  100a81:	75 dd                	jne    100a60 <_ZN11VgaTerminalC1Ev+0x30>
  100a83:	5d                   	pop    ebp
  100a84:	c3                   	ret    
  100a85:	90                   	nop
  100a86:	8d b4 26 00 00 00 00 	lea    esi,[esi+eiz*1+0x0]
  100a8d:	8d 76 00             	lea    esi,[esi+0x0]

00100a90 <_ZN11VgaTerminal5clearEv>:
  100a90:	ba a0 80 0b 00       	mov    edx,0xb80a0
  100a95:	8d b4 26 00 00 00 00 	lea    esi,[esi+eiz*1+0x0]
  100a9c:	8d 74 26 00          	lea    esi,[esi+eiz*1+0x0]
  100aa0:	8d 82 60 ff ff ff    	lea    eax,[edx-0xa0]
  100aa6:	8d b4 26 00 00 00 00 	lea    esi,[esi+eiz*1+0x0]
  100aad:	8d 76 00             	lea    esi,[esi+0x0]
  100ab0:	b9 20 0f 00 00       	mov    ecx,0xf20
  100ab5:	83 c0 02             	add    eax,0x2
  100ab8:	66 89 48 fe          	mov    WORD PTR [eax-0x2],cx
  100abc:	39 d0                	cmp    eax,edx
  100abe:	75 f0                	jne    100ab0 <_ZN11VgaTerminal5clearEv+0x20>
  100ac0:	8d 90 a0 00 00 00    	lea    edx,[eax+0xa0]
  100ac6:	3d a0 8f 0b 00       	cmp    eax,0xb8fa0
  100acb:	75 d3                	jne    100aa0 <_ZN11VgaTerminal5clearEv+0x10>
  100acd:	c3                   	ret    
  100ace:	66 90                	xchg   ax,ax

00100ad0 <_ZN11VgaTerminal5setAtEtmm>:
  100ad0:	55                   	push   ebp
  100ad1:	89 e5                	mov    ebp,esp
  100ad3:	8b 45 10             	mov    eax,DWORD PTR [ebp+0x10]
  100ad6:	8b 55 08             	mov    edx,DWORD PTR [ebp+0x8]
  100ad9:	8d 04 80             	lea    eax,[eax+eax*4]
  100adc:	c1 e0 04             	shl    eax,0x4
  100adf:	03 45 0c             	add    eax,DWORD PTR [ebp+0xc]
  100ae2:	01 c0                	add    eax,eax
  100ae4:	66 89 90 00 80 0b 00 	mov    WORD PTR [eax+0xb8000],dx
  100aeb:	5d                   	pop    ebp
  100aec:	c3                   	ret    
  100aed:	90                   	nop
  100aee:	66 90                	xchg   ax,ax

00100af0 <_ZN11VgaTerminal5getAtEmm>:
  100af0:	55                   	push   ebp
  100af1:	89 e5                	mov    ebp,esp
  100af3:	8b 45 0c             	mov    eax,DWORD PTR [ebp+0xc]
  100af6:	8d 04 80             	lea    eax,[eax+eax*4]
  100af9:	c1 e0 04             	shl    eax,0x4
  100afc:	03 45 08             	add    eax,DWORD PTR [ebp+0x8]
  100aff:	5d                   	pop    ebp
  100b00:	01 c0                	add    eax,eax
  100b02:	0f b7 80 00 80 0b 00 	movzx  eax,WORD PTR [eax+0xb8000]
  100b09:	c3                   	ret    
  100b0a:	8d b6 00 00 00 00    	lea    esi,[esi+0x0]

00100b10 <_ZN11VgaTerminal8setColorE8VgaColorS0_>:
  100b10:	55                   	push   ebp
  100b11:	89 e5                	mov    ebp,esp
  100b13:	8b 55 10             	mov    edx,DWORD PTR [ebp+0x10]
  100b16:	8b 45 0c             	mov    eax,DWORD PTR [ebp+0xc]
  100b19:	c1 e2 0c             	shl    edx,0xc
  100b1c:	c1 e0 08             	shl    eax,0x8
  100b1f:	09 d0                	or     eax,edx
  100b21:	8b 55 08             	mov    edx,DWORD PTR [ebp+0x8]
  100b24:	83 c8 20             	or     eax,0x20
  100b27:	66 89 42 08          	mov    WORD PTR [edx+0x8],ax
  100b2b:	5d                   	pop    ebp
  100b2c:	c3                   	ret    
  100b2d:	90                   	nop
  100b2e:	66 90                	xchg   ax,ax

00100b30 <_ZN11VgaTerminal6moveUpEv>:
  100b30:	55                   	push   ebp
  100b31:	b9 40 81 0b 00       	mov    ecx,0xb8140
  100b36:	89 e5                	mov    ebp,esp
  100b38:	8b 45 08             	mov    eax,DWORD PTR [ebp+0x8]
  100b3b:	83 68 04 01          	sub    DWORD PTR [eax+0x4],0x1
  100b3f:	c7 00 00 00 00 00    	mov    DWORD PTR [eax],0x0
  100b45:	8d b4 26 00 00 00 00 	lea    esi,[esi+eiz*1+0x0]
  100b4c:	8d 74 26 00          	lea    esi,[esi+eiz*1+0x0]
  100b50:	8d 81 60 ff ff ff    	lea    eax,[ecx-0xa0]
  100b56:	8d b4 26 00 00 00 00 	lea    esi,[esi+eiz*1+0x0]
  100b5d:	8d 76 00             	lea    esi,[esi+0x0]
  100b60:	0f b7 10             	movzx  edx,WORD PTR [eax]
  100b63:	83 c0 02             	add    eax,0x2
  100b66:	66 89 90 5e ff ff ff 	mov    WORD PTR [eax-0xa2],dx
  100b6d:	39 c8                	cmp    eax,ecx
  100b6f:	75 ef                	jne    100b60 <_ZN11VgaTerminal6moveUpEv+0x30>
  100b71:	8d 88 a0 00 00 00    	lea    ecx,[eax+0xa0]
  100b77:	3d a0 8f 0b 00       	cmp    eax,0xb8fa0
  100b7c:	75 d2                	jne    100b50 <_ZN11VgaTerminal6moveUpEv+0x20>
  100b7e:	b8 00 8f 0b 00       	mov    eax,0xb8f00
  100b83:	8d b4 26 00 00 00 00 	lea    esi,[esi+eiz*1+0x0]
  100b8a:	8d b6 00 00 00 00    	lea    esi,[esi+0x0]
  100b90:	ba 20 0f 00 00       	mov    edx,0xf20
  100b95:	83 c0 02             	add    eax,0x2
  100b98:	66 89 50 fe          	mov    WORD PTR [eax-0x2],dx
  100b9c:	3d a0 8f 0b 00       	cmp    eax,0xb8fa0
  100ba1:	75 ed                	jne    100b90 <_ZN11VgaTerminal6moveUpEv+0x60>
  100ba3:	5d                   	pop    ebp
  100ba4:	c3                   	ret    
  100ba5:	90                   	nop
  100ba6:	8d b4 26 00 00 00 00 	lea    esi,[esi+eiz*1+0x0]
  100bad:	8d 76 00             	lea    esi,[esi+0x0]

00100bb0 <_ZN11VgaTerminal7putCharEh>:
  100bb0:	55                   	push   ebp
  100bb1:	89 e5                	mov    ebp,esp
  100bb3:	56                   	push   esi
  100bb4:	8b 4d 08             	mov    ecx,DWORD PTR [ebp+0x8]
  100bb7:	8b 45 0c             	mov    eax,DWORD PTR [ebp+0xc]
  100bba:	53                   	push   ebx
  100bbb:	8b 59 04             	mov    ebx,DWORD PTR [ecx+0x4]
  100bbe:	3c 0a                	cmp    al,0xa
  100bc0:	74 22                	je     100be4 <_ZN11VgaTerminal7putCharEh+0x34>
  100bc2:	8b 31                	mov    esi,DWORD PTR [ecx]
  100bc4:	8d 14 9b             	lea    edx,[ebx+ebx*4]
  100bc7:	0f b6 c0             	movzx  eax,al
  100bca:	66 0b 41 08          	or     ax,WORD PTR [ecx+0x8]
  100bce:	c1 e2 04             	shl    edx,0x4
  100bd1:	01 f2                	add    edx,esi
  100bd3:	83 c6 01             	add    esi,0x1
  100bd6:	01 d2                	add    edx,edx
  100bd8:	66 89 82 00 80 0b 00 	mov    WORD PTR [edx+0xb8000],ax
  100bdf:	83 fe 4f             	cmp    esi,0x4f
  100be2:	76 1c                	jbe    100c00 <_ZN11VgaTerminal7putCharEh+0x50>
  100be4:	83 c3 01             	add    ebx,0x1
  100be7:	c7 01 00 00 00 00    	mov    DWORD PTR [ecx],0x0
  100bed:	89 59 04             	mov    DWORD PTR [ecx+0x4],ebx
  100bf0:	83 fb 18             	cmp    ebx,0x18
  100bf3:	77 1b                	ja     100c10 <_ZN11VgaTerminal7putCharEh+0x60>
  100bf5:	5b                   	pop    ebx
  100bf6:	5e                   	pop    esi
  100bf7:	5d                   	pop    ebp
  100bf8:	c3                   	ret    
  100bf9:	8d b4 26 00 00 00 00 	lea    esi,[esi+eiz*1+0x0]
  100c00:	89 31                	mov    DWORD PTR [ecx],esi
  100c02:	5b                   	pop    ebx
  100c03:	5e                   	pop    esi
  100c04:	5d                   	pop    ebp
  100c05:	c3                   	ret    
  100c06:	8d b4 26 00 00 00 00 	lea    esi,[esi+eiz*1+0x0]
  100c0d:	8d 76 00             	lea    esi,[esi+0x0]
  100c10:	5b                   	pop    ebx
  100c11:	5e                   	pop    esi
  100c12:	89 4d 08             	mov    DWORD PTR [ebp+0x8],ecx
  100c15:	5d                   	pop    ebp
  100c16:	e9 15 ff ff ff       	jmp    100b30 <_ZN11VgaTerminal6moveUpEv>
  100c1b:	90                   	nop
  100c1c:	8d 74 26 00          	lea    esi,[esi+eiz*1+0x0]

00100c20 <_ZN11VgaTerminal5writeEPKcm>:
  100c20:	55                   	push   ebp
  100c21:	89 e5                	mov    ebp,esp
  100c23:	57                   	push   edi
  100c24:	56                   	push   esi
  100c25:	53                   	push   ebx
  100c26:	83 ec 1c             	sub    esp,0x1c
  100c29:	8b 45 10             	mov    eax,DWORD PTR [ebp+0x10]
  100c2c:	8b 75 0c             	mov    esi,DWORD PTR [ebp+0xc]
  100c2f:	8b 5d 08             	mov    ebx,DWORD PTR [ebp+0x8]
  100c32:	8d 3c 06             	lea    edi,[esi+eax*1]
  100c35:	89 7d e4             	mov    DWORD PTR [ebp-0x1c],edi
  100c38:	85 c0                	test   eax,eax
  100c3a:	75 2d                	jne    100c69 <_ZN11VgaTerminal5writeEPKcm+0x49>
  100c3c:	eb 5a                	jmp    100c98 <_ZN11VgaTerminal5writeEPKcm+0x78>
  100c3e:	66 90                	xchg   ax,ax
  100c40:	8b 3b                	mov    edi,DWORD PTR [ebx]
  100c42:	8d 14 89             	lea    edx,[ecx+ecx*4]
  100c45:	66 0b 43 08          	or     ax,WORD PTR [ebx+0x8]
  100c49:	c1 e2 04             	shl    edx,0x4
  100c4c:	01 fa                	add    edx,edi
  100c4e:	83 c7 01             	add    edi,0x1
  100c51:	01 d2                	add    edx,edx
  100c53:	66 89 82 00 80 0b 00 	mov    WORD PTR [edx+0xb8000],ax
  100c5a:	83 ff 4f             	cmp    edi,0x4f
  100c5d:	77 14                	ja     100c73 <_ZN11VgaTerminal5writeEPKcm+0x53>
  100c5f:	89 3b                	mov    DWORD PTR [ebx],edi
  100c61:	83 c6 01             	add    esi,0x1
  100c64:	39 75 e4             	cmp    DWORD PTR [ebp-0x1c],esi
  100c67:	74 2f                	je     100c98 <_ZN11VgaTerminal5writeEPKcm+0x78>
  100c69:	0f b6 06             	movzx  eax,BYTE PTR [esi]
  100c6c:	8b 4b 04             	mov    ecx,DWORD PTR [ebx+0x4]
  100c6f:	3c 0a                	cmp    al,0xa
  100c71:	75 cd                	jne    100c40 <_ZN11VgaTerminal5writeEPKcm+0x20>
  100c73:	83 c1 01             	add    ecx,0x1
  100c76:	c7 03 00 00 00 00    	mov    DWORD PTR [ebx],0x0
  100c7c:	89 4b 04             	mov    DWORD PTR [ebx+0x4],ecx
  100c7f:	83 f9 18             	cmp    ecx,0x18
  100c82:	76 dd                	jbe    100c61 <_ZN11VgaTerminal5writeEPKcm+0x41>
  100c84:	83 ec 0c             	sub    esp,0xc
  100c87:	83 c6 01             	add    esi,0x1
  100c8a:	53                   	push   ebx
  100c8b:	e8 a0 fe ff ff       	call   100b30 <_ZN11VgaTerminal6moveUpEv>
  100c90:	83 c4 10             	add    esp,0x10
  100c93:	39 75 e4             	cmp    DWORD PTR [ebp-0x1c],esi
  100c96:	75 d1                	jne    100c69 <_ZN11VgaTerminal5writeEPKcm+0x49>
  100c98:	8d 65 f4             	lea    esp,[ebp-0xc]
  100c9b:	5b                   	pop    ebx
  100c9c:	5e                   	pop    esi
  100c9d:	5f                   	pop    edi
  100c9e:	5d                   	pop    ebp
  100c9f:	c3                   	ret    

00100ca0 <_ZN11VgaTerminal11writeStringEPKc>:
  100ca0:	55                   	push   ebp
  100ca1:	89 e5                	mov    ebp,esp
  100ca3:	57                   	push   edi
  100ca4:	56                   	push   esi
  100ca5:	53                   	push   ebx
  100ca6:	83 ec 28             	sub    esp,0x28
  100ca9:	8b 5d 0c             	mov    ebx,DWORD PTR [ebp+0xc]
  100cac:	8b 75 08             	mov    esi,DWORD PTR [ebp+0x8]
  100caf:	53                   	push   ebx
  100cb0:	e8 7b 00 00 00       	call   100d30 <_Z6strLenPKc>
  100cb5:	83 c4 10             	add    esp,0x10
  100cb8:	8d 3c 03             	lea    edi,[ebx+eax*1]
  100cbb:	89 7d e4             	mov    DWORD PTR [ebp-0x1c],edi
  100cbe:	85 c0                	test   eax,eax
  100cc0:	75 37                	jne    100cf9 <_ZN11VgaTerminal11writeStringEPKc+0x59>
  100cc2:	eb 64                	jmp    100d28 <_ZN11VgaTerminal11writeStringEPKc+0x88>
  100cc4:	8d b4 26 00 00 00 00 	lea    esi,[esi+eiz*1+0x0]
  100ccb:	8d 74 26 00          	lea    esi,[esi+eiz*1+0x0]
  100ccf:	90                   	nop
  100cd0:	8b 3e                	mov    edi,DWORD PTR [esi]
  100cd2:	8d 14 89             	lea    edx,[ecx+ecx*4]
  100cd5:	66 0b 46 08          	or     ax,WORD PTR [esi+0x8]
  100cd9:	c1 e2 04             	shl    edx,0x4
  100cdc:	01 fa                	add    edx,edi
  100cde:	83 c7 01             	add    edi,0x1
  100ce1:	01 d2                	add    edx,edx
  100ce3:	66 89 82 00 80 0b 00 	mov    WORD PTR [edx+0xb8000],ax
  100cea:	83 ff 4f             	cmp    edi,0x4f
  100ced:	77 14                	ja     100d03 <_ZN11VgaTerminal11writeStringEPKc+0x63>
  100cef:	89 3e                	mov    DWORD PTR [esi],edi
  100cf1:	83 c3 01             	add    ebx,0x1
  100cf4:	39 5d e4             	cmp    DWORD PTR [ebp-0x1c],ebx
  100cf7:	74 2f                	je     100d28 <_ZN11VgaTerminal11writeStringEPKc+0x88>
  100cf9:	0f b6 03             	movzx  eax,BYTE PTR [ebx]
  100cfc:	8b 4e 04             	mov    ecx,DWORD PTR [esi+0x4]
  100cff:	3c 0a                	cmp    al,0xa
  100d01:	75 cd                	jne    100cd0 <_ZN11VgaTerminal11writeStringEPKc+0x30>
  100d03:	83 c1 01             	add    ecx,0x1
  100d06:	c7 06 00 00 00 00    	mov    DWORD PTR [esi],0x0
  100d0c:	89 4e 04             	mov    DWORD PTR [esi+0x4],ecx
  100d0f:	83 f9 18             	cmp    ecx,0x18
  100d12:	76 dd                	jbe    100cf1 <_ZN11VgaTerminal11writeStringEPKc+0x51>
  100d14:	83 ec 0c             	sub    esp,0xc
  100d17:	83 c3 01             	add    ebx,0x1
  100d1a:	56                   	push   esi
  100d1b:	e8 10 fe ff ff       	call   100b30 <_ZN11VgaTerminal6moveUpEv>
  100d20:	83 c4 10             	add    esp,0x10
  100d23:	39 5d e4             	cmp    DWORD PTR [ebp-0x1c],ebx
  100d26:	75 d1                	jne    100cf9 <_ZN11VgaTerminal11writeStringEPKc+0x59>
  100d28:	8d 65 f4             	lea    esp,[ebp-0xc]
  100d2b:	5b                   	pop    ebx
  100d2c:	5e                   	pop    esi
  100d2d:	5f                   	pop    edi
  100d2e:	5d                   	pop    ebp
  100d2f:	c3                   	ret    

00100d30 <_Z6strLenPKc>:
  100d30:	55                   	push   ebp
  100d31:	31 c0                	xor    eax,eax
  100d33:	89 e5                	mov    ebp,esp
  100d35:	8b 55 08             	mov    edx,DWORD PTR [ebp+0x8]
  100d38:	80 3a 00             	cmp    BYTE PTR [edx],0x0
  100d3b:	74 0c                	je     100d49 <_Z6strLenPKc+0x19>
  100d3d:	8d 76 00             	lea    esi,[esi+0x0]
  100d40:	83 c0 01             	add    eax,0x1
  100d43:	80 3c 02 00          	cmp    BYTE PTR [edx+eax*1],0x0
  100d47:	75 f7                	jne    100d40 <_Z6strLenPKc+0x10>
  100d49:	5d                   	pop    ebp
  100d4a:	c3                   	ret    
  100d4b:	8d 74 26 00          	lea    esi,[esi+eiz*1+0x0]
  100d4f:	90                   	nop

00100d50 <_Z6memCpyPvPKvm>:
  100d50:	c3                   	ret    
  100d51:	66 90                	xchg   ax,ax
  100d53:	66 90                	xchg   ax,ax
  100d55:	66 90                	xchg   ax,ax
  100d57:	66 90                	xchg   ax,ax
  100d59:	66 90                	xchg   ax,ax
  100d5b:	66 90                	xchg   ax,ax
  100d5d:	66 90                	xchg   ax,ax
  100d5f:	90                   	nop

00100d60 <_ZN13HeapAllocatorC1EPvm>:
  100d60:	55                   	push   ebp
  100d61:	89 e5                	mov    ebp,esp
  100d63:	56                   	push   esi
  100d64:	8b 4d 08             	mov    ecx,DWORD PTR [ebp+0x8]
  100d67:	8b 45 0c             	mov    eax,DWORD PTR [ebp+0xc]
  100d6a:	53                   	push   ebx
  100d6b:	8b 55 10             	mov    edx,DWORD PTR [ebp+0x10]
  100d6e:	89 01                	mov    DWORD PTR [ecx],eax
  100d70:	89 51 04             	mov    DWORD PTR [ecx+0x4],edx
  100d73:	83 fa 0b             	cmp    edx,0xb
  100d76:	77 18                	ja     100d90 <_ZN13HeapAllocatorC1EPvm+0x30>
  100d78:	c7 41 08 00 00 00 00 	mov    DWORD PTR [ecx+0x8],0x0
  100d7f:	5b                   	pop    ebx
  100d80:	5e                   	pop    esi
  100d81:	5d                   	pop    ebp
  100d82:	c3                   	ret    
  100d83:	8d b4 26 00 00 00 00 	lea    esi,[esi+eiz*1+0x0]
  100d8a:	8d b6 00 00 00 00    	lea    esi,[esi+0x0]
  100d90:	89 c6                	mov    esi,eax
  100d92:	8d 58 04             	lea    ebx,[eax+0x4]
  100d95:	83 e6 03             	and    esi,0x3
  100d98:	29 f3                	sub    ebx,esi
  100d9a:	85 f6                	test   esi,esi
  100d9c:	0f 45 c3             	cmovne eax,ebx
  100d9f:	83 ea 0c             	sub    edx,0xc
  100da2:	83 e2 fc             	and    edx,0xfffffffc
  100da5:	89 41 08             	mov    DWORD PTR [ecx+0x8],eax
  100da8:	89 50 08             	mov    DWORD PTR [eax+0x8],edx
  100dab:	c7 40 04 00 00 00 00 	mov    DWORD PTR [eax+0x4],0x0
  100db2:	c7 00 00 00 00 00    	mov    DWORD PTR [eax],0x0
  100db8:	5b                   	pop    ebx
  100db9:	5e                   	pop    esi
  100dba:	5d                   	pop    ebp
  100dbb:	c3                   	ret    
  100dbc:	8d 74 26 00          	lea    esi,[esi+eiz*1+0x0]

00100dc0 <_ZN13HeapAllocator8allocateEm>:
  100dc0:	55                   	push   ebp
  100dc1:	89 e5                	mov    ebp,esp
  100dc3:	57                   	push   edi
  100dc4:	8b 55 0c             	mov    edx,DWORD PTR [ebp+0xc]
  100dc7:	56                   	push   esi
  100dc8:	53                   	push   ebx
  100dc9:	85 d2                	test   edx,edx
  100dcb:	0f 84 8f 00 00 00    	je     100e60 <_ZN13HeapAllocator8allocateEm+0xa0>
  100dd1:	8b 45 08             	mov    eax,DWORD PTR [ebp+0x8]
  100dd4:	8b 40 08             	mov    eax,DWORD PTR [eax+0x8]
  100dd7:	85 c0                	test   eax,eax
  100dd9:	74 5b                	je     100e36 <_ZN13HeapAllocator8allocateEm+0x76>
  100ddb:	89 d3                	mov    ebx,edx
  100ddd:	8d 4a 04             	lea    ecx,[edx+0x4]
  100de0:	83 e3 03             	and    ebx,0x3
  100de3:	29 d9                	sub    ecx,ebx
  100de5:	85 db                	test   ebx,ebx
  100de7:	0f 44 ca             	cmove  ecx,edx
  100dea:	8d 59 08             	lea    ebx,[ecx+0x8]
  100ded:	eb 08                	jmp    100df7 <_ZN13HeapAllocator8allocateEm+0x37>
  100def:	90                   	nop
  100df0:	8b 40 04             	mov    eax,DWORD PTR [eax+0x4]
  100df3:	85 c0                	test   eax,eax
  100df5:	74 3f                	je     100e36 <_ZN13HeapAllocator8allocateEm+0x76>
  100df7:	8b 50 08             	mov    edx,DWORD PTR [eax+0x8]
  100dfa:	39 da                	cmp    edx,ebx
  100dfc:	72 f2                	jb     100df0 <_ZN13HeapAllocator8allocateEm+0x30>
  100dfe:	8d 59 14             	lea    ebx,[ecx+0x14]
  100e01:	8d 78 14             	lea    edi,[eax+0x14]
  100e04:	39 da                	cmp    edx,ebx
  100e06:	72 68                	jb     100e70 <_ZN13HeapAllocator8allocateEm+0xb0>
  100e08:	8b 70 04             	mov    esi,DWORD PTR [eax+0x4]
  100e0b:	29 ca                	sub    edx,ecx
  100e0d:	89 48 10             	mov    DWORD PTR [eax+0x10],ecx
  100e10:	01 c3                	add    ebx,eax
  100e12:	c7 40 0c 56 34 12 00 	mov    DWORD PTR [eax+0xc],0x123456
  100e19:	83 ea 14             	sub    edx,0x14
  100e1c:	85 f6                	test   esi,esi
  100e1e:	74 20                	je     100e40 <_ZN13HeapAllocator8allocateEm+0x80>
  100e20:	89 1e                	mov    DWORD PTR [esi],ebx
  100e22:	89 03                	mov    DWORD PTR [ebx],eax
  100e24:	89 73 04             	mov    DWORD PTR [ebx+0x4],esi
  100e27:	89 58 04             	mov    DWORD PTR [eax+0x4],ebx
  100e2a:	89 53 08             	mov    DWORD PTR [ebx+0x8],edx
  100e2d:	c7 40 08 00 00 00 00 	mov    DWORD PTR [eax+0x8],0x0
  100e34:	89 f8                	mov    eax,edi
  100e36:	5b                   	pop    ebx
  100e37:	5e                   	pop    esi
  100e38:	5f                   	pop    edi
  100e39:	5d                   	pop    ebp
  100e3a:	c3                   	ret    
  100e3b:	8d 74 26 00          	lea    esi,[esi+eiz*1+0x0]
  100e3f:	90                   	nop
  100e40:	89 58 04             	mov    DWORD PTR [eax+0x4],ebx
  100e43:	89 03                	mov    DWORD PTR [ebx],eax
  100e45:	c7 43 04 00 00 00 00 	mov    DWORD PTR [ebx+0x4],0x0
  100e4c:	89 53 08             	mov    DWORD PTR [ebx+0x8],edx
  100e4f:	c7 40 08 00 00 00 00 	mov    DWORD PTR [eax+0x8],0x0
  100e56:	89 f8                	mov    eax,edi
  100e58:	eb dc                	jmp    100e36 <_ZN13HeapAllocator8allocateEm+0x76>
  100e5a:	8d b6 00 00 00 00    	lea    esi,[esi+0x0]
  100e60:	5b                   	pop    ebx
  100e61:	31 c0                	xor    eax,eax
  100e63:	5e                   	pop    esi
  100e64:	5f                   	pop    edi
  100e65:	5d                   	pop    ebp
  100e66:	c3                   	ret    
  100e67:	8d b4 26 00 00 00 00 	lea    esi,[esi+eiz*1+0x0]
  100e6e:	66 90                	xchg   ax,ax
  100e70:	83 ea 08             	sub    edx,0x8
  100e73:	c7 40 0c 56 34 12 00 	mov    DWORD PTR [eax+0xc],0x123456
  100e7a:	89 50 10             	mov    DWORD PTR [eax+0x10],edx
  100e7d:	c7 40 08 00 00 00 00 	mov    DWORD PTR [eax+0x8],0x0
  100e84:	89 f8                	mov    eax,edi
  100e86:	5b                   	pop    ebx
  100e87:	5e                   	pop    esi
  100e88:	5f                   	pop    edi
  100e89:	5d                   	pop    ebp
  100e8a:	c3                   	ret    
  100e8b:	90                   	nop
  100e8c:	8d 74 26 00          	lea    esi,[esi+eiz*1+0x0]

00100e90 <_ZN13HeapAllocator4freeEPv>:
  100e90:	55                   	push   ebp
  100e91:	89 e5                	mov    ebp,esp
  100e93:	56                   	push   esi
  100e94:	8b 45 0c             	mov    eax,DWORD PTR [ebp+0xc]
  100e97:	53                   	push   ebx
  100e98:	85 c0                	test   eax,eax
  100e9a:	74 4d                	je     100ee9 <_ZN13HeapAllocator4freeEPv+0x59>
  100e9c:	81 78 f8 56 34 12 00 	cmp    DWORD PTR [eax-0x8],0x123456
  100ea3:	75 44                	jne    100ee9 <_ZN13HeapAllocator4freeEPv+0x59>
  100ea5:	8b 70 fc             	mov    esi,DWORD PTR [eax-0x4]
  100ea8:	8b 48 ec             	mov    ecx,DWORD PTR [eax-0x14]
  100eab:	c7 40 f8 21 43 65 00 	mov    DWORD PTR [eax-0x8],0x654321
  100eb2:	8d 58 ec             	lea    ebx,[eax-0x14]
  100eb5:	8d 56 08             	lea    edx,[esi+0x8]
  100eb8:	89 50 f4             	mov    DWORD PTR [eax-0xc],edx
  100ebb:	85 c9                	test   ecx,ecx
  100ebd:	74 07                	je     100ec6 <_ZN13HeapAllocator4freeEPv+0x36>
  100ebf:	8b 71 08             	mov    esi,DWORD PTR [ecx+0x8]
  100ec2:	85 f6                	test   esi,esi
  100ec4:	75 2a                	jne    100ef0 <_ZN13HeapAllocator4freeEPv+0x60>
  100ec6:	8b 50 f0             	mov    edx,DWORD PTR [eax-0x10]
  100ec9:	85 d2                	test   edx,edx
  100ecb:	74 1c                	je     100ee9 <_ZN13HeapAllocator4freeEPv+0x59>
  100ecd:	8b 42 08             	mov    eax,DWORD PTR [edx+0x8]
  100ed0:	85 c0                	test   eax,eax
  100ed2:	74 15                	je     100ee9 <_ZN13HeapAllocator4freeEPv+0x59>
  100ed4:	03 43 08             	add    eax,DWORD PTR [ebx+0x8]
  100ed7:	83 c0 0c             	add    eax,0xc
  100eda:	89 43 08             	mov    DWORD PTR [ebx+0x8],eax
  100edd:	8b 42 04             	mov    eax,DWORD PTR [edx+0x4]
  100ee0:	85 c0                	test   eax,eax
  100ee2:	74 02                	je     100ee6 <_ZN13HeapAllocator4freeEPv+0x56>
  100ee4:	89 18                	mov    DWORD PTR [eax],ebx
  100ee6:	89 43 04             	mov    DWORD PTR [ebx+0x4],eax
  100ee9:	5b                   	pop    ebx
  100eea:	5e                   	pop    esi
  100eeb:	5d                   	pop    ebp
  100eec:	c3                   	ret    
  100eed:	8d 76 00             	lea    esi,[esi+0x0]
  100ef0:	8d 54 32 0c          	lea    edx,[edx+esi*1+0xc]
  100ef4:	89 cb                	mov    ebx,ecx
  100ef6:	89 51 08             	mov    DWORD PTR [ecx+0x8],edx
  100ef9:	8b 50 f0             	mov    edx,DWORD PTR [eax-0x10]
  100efc:	89 51 04             	mov    DWORD PTR [ecx+0x4],edx
  100eff:	8b 70 f0             	mov    esi,DWORD PTR [eax-0x10]
  100f02:	85 f6                	test   esi,esi
  100f04:	74 c3                	je     100ec9 <_ZN13HeapAllocator4freeEPv+0x39>
  100f06:	89 0e                	mov    DWORD PTR [esi],ecx
  100f08:	8b 58 ec             	mov    ebx,DWORD PTR [eax-0x14]
  100f0b:	8b 53 04             	mov    edx,DWORD PTR [ebx+0x4]
  100f0e:	eb b9                	jmp    100ec9 <_ZN13HeapAllocator4freeEPv+0x39>

00100f10 <_ZN13HeapAllocator9Allocated3setEm>:
  100f10:	55                   	push   ebp
  100f11:	89 e5                	mov    ebp,esp
  100f13:	8b 45 08             	mov    eax,DWORD PTR [ebp+0x8]
  100f16:	8b 55 0c             	mov    edx,DWORD PTR [ebp+0xc]
  100f19:	c7 00 56 34 12 00    	mov    DWORD PTR [eax],0x123456
  100f1f:	89 50 04             	mov    DWORD PTR [eax+0x4],edx
  100f22:	5d                   	pop    ebp
  100f23:	c3                   	ret    
  100f24:	8d b4 26 00 00 00 00 	lea    esi,[esi+eiz*1+0x0]
  100f2b:	8d 74 26 00          	lea    esi,[esi+eiz*1+0x0]
  100f2f:	90                   	nop

00100f30 <_ZN13HeapAllocator18roundUpToAlignmentEm>:
  100f30:	55                   	push   ebp
  100f31:	89 e5                	mov    ebp,esp
  100f33:	8b 45 0c             	mov    eax,DWORD PTR [ebp+0xc]
  100f36:	5d                   	pop    ebp
  100f37:	89 c1                	mov    ecx,eax
  100f39:	8d 50 04             	lea    edx,[eax+0x4]
  100f3c:	83 e1 03             	and    ecx,0x3
  100f3f:	29 ca                	sub    edx,ecx
  100f41:	85 c9                	test   ecx,ecx
  100f43:	0f 45 c2             	cmovne eax,edx
  100f46:	c3                   	ret    
  100f47:	90                   	nop
  100f48:	8d b4 26 00 00 00 00 	lea    esi,[esi+eiz*1+0x0]
  100f4f:	90                   	nop

00100f50 <_ZN13HeapAllocator20roundDownToAlignmentEm>:
  100f50:	55                   	push   ebp
  100f51:	89 e5                	mov    ebp,esp
  100f53:	8b 45 0c             	mov    eax,DWORD PTR [ebp+0xc]
  100f56:	5d                   	pop    ebp
  100f57:	83 e0 fc             	and    eax,0xfffffffc
  100f5a:	c3                   	ret    
  100f5b:	90                   	nop
  100f5c:	8d 74 26 00          	lea    esi,[esi+eiz*1+0x0]

00100f60 <_ZN13HeapAllocator5printEv>:
  100f60:	55                   	push   ebp
  100f61:	89 e5                	mov    ebp,esp
  100f63:	57                   	push   edi
  100f64:	56                   	push   esi
  100f65:	8d 75 dc             	lea    esi,[ebp-0x24]
  100f68:	53                   	push   ebx
  100f69:	83 ec 28             	sub    esp,0x28
  100f6c:	56                   	push   esi
  100f6d:	e8 be fa ff ff       	call   100a30 <_ZN11VgaTerminalC1Ev>
  100f72:	8b 45 08             	mov    eax,DWORD PTR [ebp+0x8]
  100f75:	83 c4 10             	add    esp,0x10
  100f78:	8b 78 08             	mov    edi,DWORD PTR [eax+0x8]
  100f7b:	8d 74 26 00          	lea    esi,[esi+eiz*1+0x0]
  100f7f:	90                   	nop
  100f80:	83 ec 04             	sub    esp,0x4
  100f83:	bb 0c 00 00 00       	mov    ebx,0xc
  100f88:	6a 00                	push   0x0
  100f8a:	6a 01                	push   0x1
  100f8c:	56                   	push   esi
  100f8d:	e8 7e fb ff ff       	call   100b10 <_ZN11VgaTerminal8setColorE8VgaColorS0_>
  100f92:	83 c4 10             	add    esp,0x10
  100f95:	8d b4 26 00 00 00 00 	lea    esi,[esi+eiz*1+0x0]
  100f9c:	8d 74 26 00          	lea    esi,[esi+eiz*1+0x0]
  100fa0:	83 ec 08             	sub    esp,0x8
  100fa3:	68 fe 00 00 00       	push   0xfe
  100fa8:	56                   	push   esi
  100fa9:	e8 02 fc ff ff       	call   100bb0 <_ZN11VgaTerminal7putCharEh>
  100fae:	83 c4 10             	add    esp,0x10
  100fb1:	83 eb 01             	sub    ebx,0x1
  100fb4:	75 ea                	jne    100fa0 <_ZN13HeapAllocator5printEv+0x40>
  100fb6:	83 ec 04             	sub    esp,0x4
  100fb9:	6a 00                	push   0x0
  100fbb:	6a 02                	push   0x2
  100fbd:	56                   	push   esi
  100fbe:	e8 4d fb ff ff       	call   100b10 <_ZN11VgaTerminal8setColorE8VgaColorS0_>
  100fc3:	8b 4f 08             	mov    ecx,DWORD PTR [edi+0x8]
  100fc6:	83 c4 10             	add    esp,0x10
  100fc9:	85 c9                	test   ecx,ecx
  100fcb:	74 31                	je     100ffe <_ZN13HeapAllocator5printEv+0x9e>
  100fcd:	8d 76 00             	lea    esi,[esi+0x0]
  100fd0:	83 ec 08             	sub    esp,0x8
  100fd3:	83 c3 01             	add    ebx,0x1
  100fd6:	68 fe 00 00 00       	push   0xfe
  100fdb:	56                   	push   esi
  100fdc:	e8 cf fb ff ff       	call   100bb0 <_ZN11VgaTerminal7putCharEh>
  100fe1:	8b 47 08             	mov    eax,DWORD PTR [edi+0x8]
  100fe4:	83 c4 10             	add    esp,0x10
  100fe7:	39 d8                	cmp    eax,ebx
  100fe9:	77 e5                	ja     100fd0 <_ZN13HeapAllocator5printEv+0x70>
  100feb:	8b 57 04             	mov    edx,DWORD PTR [edi+0x4]
  100fee:	85 d2                	test   edx,edx
  100ff0:	0f 84 9d 00 00 00    	je     101093 <_ZN13HeapAllocator5printEv+0x133>
  100ff6:	85 c0                	test   eax,eax
  100ff8:	74 0f                	je     101009 <_ZN13HeapAllocator5printEv+0xa9>
  100ffa:	89 d7                	mov    edi,edx
  100ffc:	eb 82                	jmp    100f80 <_ZN13HeapAllocator5printEv+0x20>
  100ffe:	8b 47 04             	mov    eax,DWORD PTR [edi+0x4]
  101001:	85 c0                	test   eax,eax
  101003:	0f 84 8a 00 00 00    	je     101093 <_ZN13HeapAllocator5printEv+0x133>
  101009:	81 7f 0c 56 34 12 00 	cmp    DWORD PTR [edi+0xc],0x123456
  101010:	74 0e                	je     101020 <_ZN13HeapAllocator5printEv+0xc0>
  101012:	83 ec 08             	sub    esp,0x8
  101015:	6a 2a                	push   0x2a
  101017:	56                   	push   esi
  101018:	e8 93 fb ff ff       	call   100bb0 <_ZN11VgaTerminal7putCharEh>
  10101d:	83 c4 10             	add    esp,0x10
  101020:	83 ec 04             	sub    esp,0x4
  101023:	bb 08 00 00 00       	mov    ebx,0x8
  101028:	6a 00                	push   0x0
  10102a:	6a 06                	push   0x6
  10102c:	56                   	push   esi
  10102d:	e8 de fa ff ff       	call   100b10 <_ZN11VgaTerminal8setColorE8VgaColorS0_>
  101032:	83 c4 10             	add    esp,0x10
  101035:	8d b4 26 00 00 00 00 	lea    esi,[esi+eiz*1+0x0]
  10103c:	8d 74 26 00          	lea    esi,[esi+eiz*1+0x0]
  101040:	83 ec 08             	sub    esp,0x8
  101043:	68 fe 00 00 00       	push   0xfe
  101048:	56                   	push   esi
  101049:	e8 62 fb ff ff       	call   100bb0 <_ZN11VgaTerminal7putCharEh>
  10104e:	83 c4 10             	add    esp,0x10
  101051:	83 eb 01             	sub    ebx,0x1
  101054:	75 ea                	jne    101040 <_ZN13HeapAllocator5printEv+0xe0>
  101056:	83 ec 04             	sub    esp,0x4
  101059:	6a 00                	push   0x0
  10105b:	6a 04                	push   0x4
  10105d:	56                   	push   esi
  10105e:	e8 ad fa ff ff       	call   100b10 <_ZN11VgaTerminal8setColorE8VgaColorS0_>
  101063:	8b 57 10             	mov    edx,DWORD PTR [edi+0x10]
  101066:	83 c4 10             	add    esp,0x10
  101069:	85 d2                	test   edx,edx
  10106b:	74 1c                	je     101089 <_ZN13HeapAllocator5printEv+0x129>
  10106d:	8d 76 00             	lea    esi,[esi+0x0]
  101070:	83 ec 08             	sub    esp,0x8
  101073:	83 c3 01             	add    ebx,0x1
  101076:	68 fe 00 00 00       	push   0xfe
  10107b:	56                   	push   esi
  10107c:	e8 2f fb ff ff       	call   100bb0 <_ZN11VgaTerminal7putCharEh>
  101081:	83 c4 10             	add    esp,0x10
  101084:	39 5f 10             	cmp    DWORD PTR [edi+0x10],ebx
  101087:	77 e7                	ja     101070 <_ZN13HeapAllocator5printEv+0x110>
  101089:	8b 57 04             	mov    edx,DWORD PTR [edi+0x4]
  10108c:	89 d7                	mov    edi,edx
  10108e:	e9 ed fe ff ff       	jmp    100f80 <_ZN13HeapAllocator5printEv+0x20>
  101093:	8d 65 f4             	lea    esp,[ebp-0xc]
  101096:	5b                   	pop    ebx
  101097:	5e                   	pop    esi
  101098:	5f                   	pop    edi
  101099:	5d                   	pop    ebp
  10109a:	c3                   	ret    

0010109b <_start>:
  10109b:	bc 40 78 10 00       	mov    esp,0x107840
  1010a0:	e8 5b 01 00 00       	call   101200 <main>
  1010a5:	fa                   	cli    
  1010a6:	f4                   	hlt    
  1010a7:	eb fd                	jmp    1010a6 <_start+0xb>

001010a9 <gdt_flush>:
  1010a9:	0f 01 15 20 38 10 00 	lgdtd  ds:0x103820
  1010b0:	66 b8 10 00          	mov    ax,0x10
  1010b4:	8e d8                	mov    ds,eax
  1010b6:	8e c0                	mov    es,eax
  1010b8:	8e e0                	mov    fs,eax
  1010ba:	8e e8                	mov    gs,eax
  1010bc:	8e d0                	mov    ss,eax
  1010be:	ea c5 10 10 00 08 00 	jmp    0x8:0x1010c5

001010c5 <flush2>:
  1010c5:	c3                   	ret    

001010c6 <idt_load>:
  1010c6:	0f 01 1d 00 30 10 00 	lidtd  ds:0x103000
  1010cd:	fb                   	sti    
  1010ce:	c3                   	ret    

001010cf <_isr0>:
  1010cf:	fa                   	cli    
  1010d0:	6a 00                	push   0x0
  1010d2:	6a 00                	push   0x0
  1010d4:	e9 f1 00 00 00       	jmp    1011ca <isr_common_stub>

001010d9 <_isr1>:
  1010d9:	fa                   	cli    
  1010da:	6a 00                	push   0x0
  1010dc:	6a 01                	push   0x1
  1010de:	e9 e7 00 00 00       	jmp    1011ca <isr_common_stub>

001010e3 <_isr2>:
  1010e3:	fa                   	cli    
  1010e4:	6a 00                	push   0x0
  1010e6:	6a 02                	push   0x2
  1010e8:	e9 dd 00 00 00       	jmp    1011ca <isr_common_stub>

001010ed <_isr3>:
  1010ed:	fa                   	cli    
  1010ee:	6a 00                	push   0x0
  1010f0:	6a 03                	push   0x3
  1010f2:	e9 d3 00 00 00       	jmp    1011ca <isr_common_stub>

001010f7 <_isr4>:
  1010f7:	fa                   	cli    
  1010f8:	6a 00                	push   0x0
  1010fa:	6a 04                	push   0x4
  1010fc:	e9 c9 00 00 00       	jmp    1011ca <isr_common_stub>

00101101 <_isr5>:
  101101:	fa                   	cli    
  101102:	6a 00                	push   0x0
  101104:	6a 05                	push   0x5
  101106:	e9 bf 00 00 00       	jmp    1011ca <isr_common_stub>

0010110b <_isr6>:
  10110b:	fa                   	cli    
  10110c:	6a 00                	push   0x0
  10110e:	6a 06                	push   0x6
  101110:	e9 b5 00 00 00       	jmp    1011ca <isr_common_stub>

00101115 <_isr7>:
  101115:	fa                   	cli    
  101116:	6a 00                	push   0x0
  101118:	6a 07                	push   0x7
  10111a:	e9 ab 00 00 00       	jmp    1011ca <isr_common_stub>

0010111f <_isr8>:
  10111f:	fa                   	cli    
  101120:	6a 08                	push   0x8
  101122:	e9 a3 00 00 00       	jmp    1011ca <isr_common_stub>

00101127 <_isr9>:
  101127:	fa                   	cli    
  101128:	6a 00                	push   0x0
  10112a:	6a 09                	push   0x9
  10112c:	e9 99 00 00 00       	jmp    1011ca <isr_common_stub>

00101131 <_isr10>:
  101131:	fa                   	cli    
  101132:	6a 0a                	push   0xa
  101134:	e9 91 00 00 00       	jmp    1011ca <isr_common_stub>

00101139 <_isr11>:
  101139:	fa                   	cli    
  10113a:	6a 0b                	push   0xb
  10113c:	e9 89 00 00 00       	jmp    1011ca <isr_common_stub>

00101141 <_isr12>:
  101141:	fa                   	cli    
  101142:	6a 0c                	push   0xc
  101144:	e9 81 00 00 00       	jmp    1011ca <isr_common_stub>

00101149 <_isr13>:
  101149:	fa                   	cli    
  10114a:	6a 0d                	push   0xd
  10114c:	eb 7c                	jmp    1011ca <isr_common_stub>

0010114e <_isr14>:
  10114e:	fa                   	cli    
  10114f:	6a 0e                	push   0xe
  101151:	eb 77                	jmp    1011ca <isr_common_stub>

00101153 <_isr15>:
  101153:	fa                   	cli    
  101154:	6a 00                	push   0x0
  101156:	6a 0f                	push   0xf
  101158:	eb 70                	jmp    1011ca <isr_common_stub>

0010115a <_isr16>:
  10115a:	fa                   	cli    
  10115b:	6a 00                	push   0x0
  10115d:	6a 10                	push   0x10
  10115f:	eb 69                	jmp    1011ca <isr_common_stub>

00101161 <_isr17>:
  101161:	fa                   	cli    
  101162:	6a 00                	push   0x0
  101164:	6a 11                	push   0x11
  101166:	eb 62                	jmp    1011ca <isr_common_stub>

00101168 <_isr18>:
  101168:	fa                   	cli    
  101169:	6a 00                	push   0x0
  10116b:	6a 12                	push   0x12
  10116d:	eb 5b                	jmp    1011ca <isr_common_stub>

0010116f <_isr19>:
  10116f:	fa                   	cli    
  101170:	6a 00                	push   0x0
  101172:	6a 13                	push   0x13
  101174:	eb 54                	jmp    1011ca <isr_common_stub>

00101176 <_isr20>:
  101176:	fa                   	cli    
  101177:	6a 00                	push   0x0
  101179:	6a 14                	push   0x14
  10117b:	eb 4d                	jmp    1011ca <isr_common_stub>

0010117d <_isr21>:
  10117d:	fa                   	cli    
  10117e:	6a 00                	push   0x0
  101180:	6a 15                	push   0x15
  101182:	eb 46                	jmp    1011ca <isr_common_stub>

00101184 <_isr22>:
  101184:	fa                   	cli    
  101185:	6a 00                	push   0x0
  101187:	6a 16                	push   0x16
  101189:	eb 3f                	jmp    1011ca <isr_common_stub>

0010118b <_isr23>:
  10118b:	fa                   	cli    
  10118c:	6a 00                	push   0x0
  10118e:	6a 17                	push   0x17
  101190:	eb 38                	jmp    1011ca <isr_common_stub>

00101192 <_isr24>:
  101192:	fa                   	cli    
  101193:	6a 00                	push   0x0
  101195:	6a 18                	push   0x18
  101197:	eb 31                	jmp    1011ca <isr_common_stub>

00101199 <_isr25>:
  101199:	fa                   	cli    
  10119a:	6a 00                	push   0x0
  10119c:	6a 19                	push   0x19
  10119e:	eb 2a                	jmp    1011ca <isr_common_stub>

001011a0 <_isr26>:
  1011a0:	fa                   	cli    
  1011a1:	6a 00                	push   0x0
  1011a3:	6a 1a                	push   0x1a
  1011a5:	eb 23                	jmp    1011ca <isr_common_stub>

001011a7 <_isr27>:
  1011a7:	fa                   	cli    
  1011a8:	6a 00                	push   0x0
  1011aa:	6a 1b                	push   0x1b
  1011ac:	eb 1c                	jmp    1011ca <isr_common_stub>

001011ae <_isr28>:
  1011ae:	fa                   	cli    
  1011af:	6a 00                	push   0x0
  1011b1:	6a 1c                	push   0x1c
  1011b3:	eb 15                	jmp    1011ca <isr_common_stub>

001011b5 <_isr29>:
  1011b5:	fa                   	cli    
  1011b6:	6a 00                	push   0x0
  1011b8:	6a 1d                	push   0x1d
  1011ba:	eb 0e                	jmp    1011ca <isr_common_stub>

001011bc <_isr30>:
  1011bc:	fa                   	cli    
  1011bd:	6a 00                	push   0x0
  1011bf:	6a 1e                	push   0x1e
  1011c1:	eb 07                	jmp    1011ca <isr_common_stub>

001011c3 <_isr31>:
  1011c3:	fa                   	cli    
  1011c4:	6a 00                	push   0x0
  1011c6:	6a 1f                	push   0x1f
  1011c8:	eb 00                	jmp    1011ca <isr_common_stub>

001011ca <isr_common_stub>:
  1011ca:	60                   	pusha  
  1011cb:	1e                   	push   ds
  1011cc:	06                   	push   es
  1011cd:	0f a0                	push   fs
  1011cf:	0f a8                	push   gs
  1011d1:	66 b8 10 00          	mov    ax,0x10
  1011d5:	8e d8                	mov    ds,eax
  1011d7:	8e c0                	mov    es,eax
  1011d9:	8e e0                	mov    fs,eax
  1011db:	8e e8                	mov    gs,eax
  1011dd:	89 e0                	mov    eax,esp
  1011df:	50                   	push   eax
  1011e0:	a1 80 08 10 00       	mov    eax,ds:0x100880
  1011e5:	ff d0                	call   eax
  1011e7:	58                   	pop    eax
  1011e8:	0f a9                	pop    gs
  1011ea:	0f a1                	pop    fs
  1011ec:	07                   	pop    es
  1011ed:	1f                   	pop    ds
  1011ee:	61                   	popa   
  1011ef:	83 c4 08             	add    esp,0x8
  1011f2:	cf                   	iret   

Disassembly of section .text.startup:

00101200 <main>:
  101200:	8d 4c 24 04          	lea    ecx,[esp+0x4]
  101204:	83 e4 f0             	and    esp,0xfffffff0
  101207:	ff 71 fc             	push   DWORD PTR [ecx-0x4]
  10120a:	55                   	push   ebp
  10120b:	89 e5                	mov    ebp,esp
  10120d:	53                   	push   ebx
  10120e:	51                   	push   ecx
  10120f:	83 ec 20             	sub    esp,0x20
  101212:	e8 99 f6 ff ff       	call   1008b0 <_ZN6Serial4initEv>
  101217:	e8 d4 f1 ff ff       	call   1003f0 <_Z11gdt_installv>
  10121c:	e8 6f f2 ff ff       	call   100490 <_Z11idt_installv>
  101221:	e8 9a f2 ff ff       	call   1004c0 <_Z12isrs_installv>
  101226:	fb                   	sti    
  101227:	83 ec 0c             	sub    esp,0xc
  10122a:	8d 5d e0             	lea    ebx,[ebp-0x20]
  10122d:	53                   	push   ebx
  10122e:	e8 fd f7 ff ff       	call   100a30 <_ZN11VgaTerminalC1Ev>
  101233:	58                   	pop    eax
  101234:	5a                   	pop    edx
  101235:	68 1d 20 10 00       	push   0x10201d
  10123a:	53                   	push   ebx
  10123b:	e8 60 fa ff ff       	call   100ca0 <_ZN11VgaTerminal11writeStringEPKc>
  101240:	c7 45 dc 00 00 00 00 	mov    DWORD PTR [ebp-0x24],0x0
  101247:	cd 00                	int    0x0
  101249:	8d 5d ec             	lea    ebx,[ebp-0x14]
  10124c:	89 1c 24             	mov    DWORD PTR [esp],ebx
  10124f:	e8 dc f7 ff ff       	call   100a30 <_ZN11VgaTerminalC1Ev>
  101254:	59                   	pop    ecx
  101255:	58                   	pop    eax
  101256:	68 21 20 10 00       	push   0x102021
  10125b:	53                   	push   ebx
  10125c:	e8 3f fa ff ff       	call   100ca0 <_ZN11VgaTerminal11writeStringEPKc>
  101261:	83 c4 10             	add    esp,0x10
  101264:	8d 65 f8             	lea    esp,[ebp-0x8]
  101267:	59                   	pop    ecx
  101268:	5b                   	pop    ebx
  101269:	5d                   	pop    ebp
  10126a:	8d 61 fc             	lea    esp,[ecx-0x4]
  10126d:	c3                   	ret    
